                 U __assert_fail@GLIBC_2.2.5
00000000003bc940 B __bss_start
                 U calloc@GLIBC_2.2.5
                 U closedir@GLIBC_2.2.5
                 U CRYPTO_free@OPENSSL_1_1_0
                 U CRYPTO_get_ex_new_index@OPENSSL_1_1_0
                 U curl_easy_cleanup
                 U curl_easy_duphandle
                 U curl_easy_escape
                 U curl_easy_getinfo
                 U curl_easy_init
                 U curl_easy_perform
                 U curl_easy_setopt
                 U curl_easy_strerror
                 U curl_free
                 U curl_global_cleanup
                 U curl_global_init_mem
                 U curl_share_cleanup
                 U curl_slist_append
                 U curl_slist_free_all
                 U __cxa_allocate_exception@CXXABI_1.3
                 U __cxa_atexit@GLIBC_2.2.5
                 U __cxa_begin_catch@CXXABI_1.3
                 U __cxa_end_catch@CXXABI_1.3
                 w __cxa_finalize@GLIBC_2.2.5
                 U __cxa_free_exception@CXXABI_1.3
                 U __cxa_guard_abort@CXXABI_1.3
                 U __cxa_guard_acquire@CXXABI_1.3
                 U __cxa_guard_release@CXXABI_1.3
                 U __cxa_pure_virtual@CXXABI_1.3
                 U __cxa_rethrow@CXXABI_1.3
                 U __cxa_throw@CXXABI_1.3
                 U d2i_X509@OPENSSL_1_1_0
                 U __dynamic_cast@CXXABI_1.3
                 U EC_KEY_get_ex_data@OPENSSL_1_1_0
                 U EC_KEY_set_ex_data@OPENSSL_1_1_0
00000000003bc940 D _edata
00000000003bda00 B _end
                 U __errno_location@GLIBC_2.2.5
                 U EVP_PKEY_base_id@OPENSSL_1_1_0
                 U EVP_PKEY_CTX_ctrl@OPENSSL_1_1_0
                 U EVP_PKEY_CTX_get0_pkey@OPENSSL_1_1_0
                 U EVP_PKEY_free@OPENSSL_1_1_0
                 U EVP_PKEY_get0_EC_KEY@OPENSSL_1_1_0
                 U EVP_PKEY_get0_RSA@OPENSSL_1_1_0
                 U EVP_PKEY_meth_add0@OPENSSL_1_1_0
                 U EVP_PKEY_meth_copy@OPENSSL_1_1_0
                 U EVP_PKEY_meth_find@OPENSSL_1_1_0
                 U EVP_PKEY_meth_free@OPENSSL_1_1_0
                 U EVP_PKEY_meth_get_sign@OPENSSL_1_1_0
                 U EVP_PKEY_meth_new@OPENSSL_1_1_0
                 U EVP_PKEY_meth_remove@OPENSSL_1_1_1
                 U EVP_PKEY_meth_set_sign@OPENSSL_1_1_0
                 U EVP_PKEY_size@OPENSSL_1_1_0
                 U exit@GLIBC_2.2.5
                 U fileExists
                 U fileIsReadable
0000000000166ee0 T _fini
                 U GetCurrentTimeMillis
                 U GetCurrentTimeSeconds
                 U getenv@GLIBC_2.2.5
                 U geteuid@GLIBC_2.2.5
                 U getpid@GLIBC_2.2.5
                 U getpwuid@GLIBC_2.2.5
                 U getpwuid_r@GLIBC_2.2.5
                 U getuid@GLIBC_2.2.5
                 w __gmon_start__
                 U __gxx_personality_v0@CXXABI_1.3
000000000003dfe8 T _init
                 U isalnum@GLIBC_2.2.5
                 w _ITM_deregisterTMCloneTable
                 w _ITM_registerTMCloneTable
                 w _Jv_RegisterClasses
                 U malloc@GLIBC_2.2.5
                 U memcmp@GLIBC_2.2.5
                 U memcpy@GLIBC_2.14
                 U memmove@GLIBC_2.2.5
                 U memset@GLIBC_2.2.5
                 U milliseconds_sleep
                 U mkdtemp@GLIBC_2.2.5
                 U opendir@GLIBC_2.2.5
                 U OPENSSL_sk_free@OPENSSL_1_1_0
                 U OPENSSL_sk_num@OPENSSL_1_1_0
                 U OPENSSL_sk_pop_free@OPENSSL_1_1_0
                 U OPENSSL_sk_value@OPENSSL_1_1_0
                 U pthread_create@GLIBC_2.2.5
                 U pthread_join@GLIBC_2.2.5
                 w __pthread_key_create@GLIBC_2.2.5
                 w pthread_mutex_lock@GLIBC_2.2.5
                 w pthread_mutex_unlock@GLIBC_2.2.5
                 U pthread_self@GLIBC_2.2.5
                 U readdir@GLIBC_2.2.5
                 U realloc@GLIBC_2.2.5
                 U remove@GLIBC_2.2.5
                 U RSA_get_ex_data@OPENSSL_1_1_0
                 U RSA_pkey_ctx_ctrl@OPENSSL_1_1_1
                 U RSA_set_ex_data@OPENSSL_1_1_0
                 U safe_snprintfA
                 U safe_strlcatA
                 U safe_strlcpyA
                 U safe_vsnprintfA
                 U setuid@GLIBC_2.2.5
                 U SSL_CTX_ctrl@OPENSSL_1_1_0
                 U SSL_CTX_get_ex_data@OPENSSL_1_1_0
                 U SSL_CTX_set_cert_verify_callback@OPENSSL_1_1_0
                 U SSL_CTX_set_cipher_list@OPENSSL_1_1_0
                 U SSL_CTX_set_ciphersuites@OPENSSL_1_1_1
                 U SSL_CTX_set_client_cert_cb@OPENSSL_1_1_0
                 U SSL_CTX_set_ex_data@OPENSSL_1_1_0
                 U SSL_CTX_set_ssl_version@OPENSSL_1_1_0
                 U SSL_CTX_set_verify@OPENSSL_1_1_0
                 U SSL_get_client_CA_list@OPENSSL_1_1_0
                 U SSL_get_SSL_CTX@OPENSSL_1_1_0
                 U SSL_version@OPENSSL_1_1_0
                 U __stack_chk_fail@GLIBC_2.4
                 U strcasecmp@GLIBC_2.2.5
                 U strdup@GLIBC_2.2.5
                 U strerror@GLIBC_2.2.5
                 U strlen@GLIBC_2.2.5
                 U strtol@GLIBC_2.2.5
                 U time@GLIBC_2.2.5
                 U TLS_client_method@OPENSSL_1_1_0
                 U tolower@GLIBC_2.2.5
                 U unlink_file
                 U _Unwind_Resume@GCC_3.0
                 U waitpid@GLIBC_2.2.5
                 U wcslen@GLIBC_2.2.5
                 U X509_free@OPENSSL_1_1_0
                 U X509_get_issuer_name@OPENSSL_1_1_0
                 U X509_get_pubkey@OPENSSL_1_1_0
                 U X509_get_subject_name@OPENSSL_1_1_0
                 U X509_NAME_cmp@OPENSSL_1_1_0
                 U X509_NAME_oneline@OPENSSL_1_1_0
                 U X509_STORE_CTX_get0_cert@OPENSSL_1_1_0
                 U __xstat@GLIBC_2.2.5
000000000013f090 T _Z12ElemtoXMLStrRK22XmlHierarchicalElementRSs
                 U _Z12GetOsVersionv
                 U _Z12IsOs_UNKNOWNv
                 U _Z13free_callbackPv
000000000013ad10 T _Z14ElemToFlatListRK22XmlHierarchicalElementR9XmlIfcMgr
                 U _Z14IsOs_PalmWebOSv
                 U _Z23BrowserApiLaunchDefaultbRKSsPKcS2_
                 U _Z27MakeSureDirectoryPathExistsPKc
                 U _Z8FileCopyRKSsS0_b
                 U _ZdaPv@GLIBCXX_3.4
                 U _ZdlPv@GLIBCXX_3.4
000000000010bd70 T _ZlsRSoR12VPNStatsBase
                 U _ZN10CCertPKCS717GetX509StackAllocERP13stack_st_X509
                 U _ZN10CCertPKCS7C1ERl
                 U _ZN10CCertPKCS7D1Ev
                 U _ZN10CCertStore20GetFIPSReasonStringsEj
                 U _ZN10CCertStore23GetConfirmReasonStringsEjb
                 U _ZN10CCertStore23LogConfirmReasonStringsEjb
                 U _ZN10CDataCrypt12CryptMemFreeEPvb
                 U _ZN10CDataCrypt15CreateDataCryptERP10IDataCrypt
                 U _ZN10CDataCrypt18DecryptStringAllocEPKhjRPcRj
                 U _ZN10CDataCryptC1ERl
                 U _ZN10CDataCryptD1Ev
00000000000f1bb0 T _ZN10ConnectIfc10getBaseURLER14ConnectIfcDataib
00000000000ef780 T _ZN10ConnectIfc10getCSDStubER14ConnectIfcData
00000000000f5a20 T _ZN10ConnectIfc11doCSDBypassER14ConnectIfcData
00000000000ef290 T _ZN10ConnectIfc11sendRequestER14ConnectIfcDataRKSsibbS3_
00000000000ed3c0 T _ZN10ConnectIfc11TrimSlashesERSs
00000000000f4760 T _ZN10ConnectIfc13getDownloaderER14ConnectIfcData
00000000000f3630 T _ZN10ConnectIfc13getPackageURLER14ConnectIfcData
00000000000f1c10 T _ZN10ConnectIfc13requestLogoutER14ConnectIfcData
00000000003bc7a0 D _ZN10ConnectIfc13sm_cookieStrsE
00000000000ed770 T _ZN10ConnectIfc14GetPackageSlotESs
00000000000edfa0 T _ZN10ConnectIfc14initConnectIfcERl19ConnectProtocolType
00000000000ecf70 T _ZN10ConnectIfc14TrimWhiteSpaceERSs
00000000000f68f0 T _ZN10ConnectIfc15handleRedirectsER14ConnectIfcData
00000000000f63b0 T _ZN10ConnectIfc16getRequestStringER14ConnectIfcDataPKci
00000000000ecac0 T _ZN10ConnectIfc17initTransportDataER14ConnectIfcDataRj
00000000000ee4e0 T _ZN10ConnectIfc17setHttpNotAllowedEb
00000000000eee30 T _ZN10ConnectIfc19populateStrapHeaderERKSsS1_
00000000000ed870 T _ZN10ConnectIfc19TranslateStatusCodeEl
00000000000eddf0 T _ZN10ConnectIfc20AddPersistentHeadersEv
00000000000f09d0 T _ZN10ConnectIfc20getCsdDllFileContentER14ConnectIfcData
00000000000f4160 T _ZN10ConnectIfc20getUpdateFileContentER14ConnectIfcData
00000000000ee230 T _ZN10ConnectIfc20SetAggregateAuthFlagER14ConnectIfcDataRK19CHttpHeaderResponse
00000000000f64d0 T _ZN10ConnectIfc21changeHttpRequestTypeER14ConnectIfcDatab
00000000000f26e0 T _ZN10ConnectIfc21checkCSDTokenValidityER14ConnectIfcData
00000000000edd10 T _ZN10ConnectIfc23convertContentTypeToXMLER14ConnectIfcData
00000000000ed470 T _ZN10ConnectIfc23getBaseURLFromAggConfigER14ConnectIfcData
00000000000f1140 T _ZN10ConnectIfc23getBaseURLFromCfgCookieER14ConnectIfcDataib
00000000000f00b0 T _ZN10ConnectIfc23getCSDUpdateFileContentER14ConnectIfcData
00000000003bc780 D _ZN10ConnectIfc27sm_CSDApiStateTimeoutValuesE
00000000000f4d60 T _ZN10ConnectIfc31getRequestStringFromCredentialsER14ConnectIfcDataPKci
00000000000ee540 T _ZN10ConnectIfc33processNotifyAgentConnectResponseEbN24CNotifyAgentPreTunnelTlv19CONNECT_STOP_REASONERKSsS3_S3_S3_S3_bbbR14ConnectIfcData
00000000000f7bc0 T _ZN10ConnectIfc4sendER14ConnectIfcData
00000000000f8740 T _ZN10ConnectIfc7connectER14ConnectIfcData
00000000000f2130 T _ZN10ConnectIfc9getCookieENS_10CookieTypeERSs
00000000000f3580 T _ZN10ConnectIfc9hasCookieENS_10CookieTypeE
00000000000ee1d0 T _ZN10ConnectIfcC1ERl19ConnectProtocolTypeP13IConnectIfcCB
00000000000ee1d0 T _ZN10ConnectIfcC2ERl19ConnectProtocolTypeP13IConnectIfcCB
00000000000eca30 T _ZN10ConnectIfcD0Ev
00000000000ec9d0 T _ZN10ConnectIfcD1Ev
00000000000ec9d0 T _ZN10ConnectIfcD2Ev
                 U _ZN10CTimerList12CheckExpiredEv
                 U _ZN10CTimerList13TimeToExpiredERm
                 U _ZN10MsgCatalog10getMessageEPKcRSs
                 U _ZN10MsgCatalog10getMessageEPKcS1_jRSs
                 U _ZN10MsgCatalog10getMessageER10MsgWithArgRSsb
                 U _ZN10MsgWithArg10setMessageEPKc
                 U _ZN10MsgWithArg11addArgumentEPKc
                 U _ZN10MsgWithArg11addArgumentERKSs
                 U _ZN10MsgWithArg14isMessageEmptyEv
                 U _ZN10MsgWithArgC1EPKc
                 U _ZN10MsgWithArgC1Ev
                 U _ZN10MsgWithArgD1Ev
00000000000bf6e0 T _ZN10Preference18setPreferenceValueERKSs
00000000000bf5e0 T _ZN10PreferenceC1E12PreferenceIdRKSs10PromptTypeS2_PSt3mapISsSsSt4lessISsESaISt4pairIS1_SsEEEPS_
00000000000bf5e0 T _ZN10PreferenceC2E12PreferenceIdRKSs10PromptTypeS2_PSt3mapISsSsSt4lessISsESaISt4pairIS1_SsEEEPS_
00000000000ab280 T _ZN10ProfileMgr10addProfileERSt4listISsSaISsEE16VPN_TUNNEL_SCOPERSsPc
00000000000b0090 T _ZN10ProfileMgr11loadProfileERSs
00000000000b1fa0 T _ZN10ProfileMgr12loadProfilesERb
00000000000ab780 T _ZN10ProfileMgr13getProfileDirE16VPN_TUNNEL_SCOPE
00000000000ac950 T _ZN10ProfileMgr14getHostEntriesEv
00000000000afcb0 T _ZN10ProfileMgr14getHostProfileERKSs
00000000000ac340 T _ZN10ProfileMgr14getProfileListE16VPN_TUNNEL_SCOPE
00000000000af0e0 T _ZN10ProfileMgr14unloadProfilesEv
00000000000affc0 T _ZN10ProfileMgr15getProtocolTypeERKSs
00000000000adf20 T _ZN10ProfileMgr15IsHostInProfileERK3URL
00000000000ac5c0 T _ZN10ProfileMgr18applyFileOperationEPFjPKcERKSsRj
00000000000ad930 T _ZN10ProfileMgr19getHostInitSettingsERKSsb
00000000000acb40 T _ZN10ProfileMgr19haveProfilesChangedESt4listISsSaISsEE
00000000000aae20 T _ZN10ProfileMgr21eliminateInvalidHostsERSt4listISsSaISsEE
00000000000afe50 T _ZN10ProfileMgr22GetHostAddressFromNameERKSs
00000000000ad2a0 T _ZN10ProfileMgr22GetHostNameFromAddressERKSs19ConnectProtocolType
00000000000ad320 T _ZN10ProfileMgr22getProfileNameFromHostERKSs
00000000000b2bd0 T _ZN10ProfileMgr28enforceSingleAlwaysOnProfileERKSs
00000000000ab510 T _ZN10ProfileMgr28mergeDefaultHostInitSettingsEv
00000000000ace80 T _ZN10ProfileMgr29getHostNameOrEmtpyFromAddressERKSs19ConnectProtocolType
00000000000ac870 T _ZN10ProfileMgr8getHostsEv
00000000000b27c0 T _ZN10ProfileMgrC1ERKSt8weak_ptrI11IProfilesCBE16VPN_TUNNEL_SCOPE
00000000000b27c0 T _ZN10ProfileMgrC2ERKSt8weak_ptrI11IProfilesCBE16VPN_TUNNEL_SCOPE
00000000000afc70 T _ZN10ProfileMgrD0Ev
00000000000af790 T _ZN10ProfileMgrD1Ev
00000000000af790 T _ZN10ProfileMgrD2Ev
                 U _ZN10XmlElement14getElementNameEv
                 U _ZN10XmlElement15getElementValueEv
                 U _ZN10XmlElement18appendElementValueERKSs
                 U _ZN10XmlElement20getElementAttributesEv
                 U _ZN10XmlElement9addNVPairERKSsS1_
                 U _ZN10XmlElementC1ERKSs
                 U _ZN11ACUserAgent17GenerateUserAgentE19AC_USERAGENT_FORMAT
                 U _ZN11CCertHelper12GetCertPKCS7EP12CCertificateR10CCertPKCS7
                 U _ZN11CCertHelper12GetCertPKCS7ERKSsRSt6vectorIhSaIhEE
                 U _ZN11CCertHelper12ImportPKCS12EjPKhRKSsS3_RP12CCertificatej
                 U _ZN11CCertHelper12SortCertListERSt4listIP12CCertificateSaIS2_EE
                 U _ZN11CCertHelper15FindCertInStoreERKSt6vectorIhSaIhEEj9eCertType
                 U _ZN11CCertHelper16FreeCertificatesERSt4listIP12CCertificateSaIS2_EE
                 U _ZN11CCertHelper17DeleteCertificateERKSsjS1_
                 U _ZN11CCertHelper17GetCertThumbprintESt6vectorIhSaIhEERSs8eHashAlg
                 U _ZN11CCertHelper17ImportCertificateERKSt6vectorIhSaIhEERKSs9eCertTypejPP12CCertificate
                 U _ZN11CCertHelper20GetServerCertificateERKSt6vectorIhSaIhEERS2_
                 U _ZN11CCertHelper21GetClientCertificatesEP10CERT_ENTRYP13CCertNameListRSt4listIP12CCertificateSaIS6_EEj
                 U _ZN11CCertHelper21OpenClientCertificateERKSsRP12CCertificatej
                 U _ZN11CCertHelper22GetCertThumbprintPKCS7ESt6vectorIhSaIhEERSs8eHashAlg
                 U _ZN11CCertHelper23VerifyServerCertificateEPK17x509_store_ctx_st14eCertContextIDPKcRSsRj25eCertVerifyRevocationTypebj
                 U _ZN11CCertHelper23VerifyServerCertificateERKSt6vectorIhSaIhEE14eCertContextIDPKcRj25eCertVerifyRevocationTypebj
                 U _ZN11CCertHelper9X509ToDEREP7x509_stRjRPh
                 U _ZN11CCertHelperC1ERljRKSs
                 U _ZN11CCertHelperD1Ev
                 U _ZN11CHModuleMgr13STFreeLibraryEv
                 U _ZN11CHModuleMgr13STLoadLibraryEPKcb
                 U _ZN11CHModuleMgr16STGetProcAddressERPvPKcb
                 U _ZN11CHModuleMgrD1Ev
                 U _ZN11CHttpHeader5clearEv
                 U _ZN11CIpcMessage17destroyIpcMessageEv
                 U _ZN11CManualLock4LockEv
                 U _ZN11CManualLock6UnlockEv
                 U _ZN11CManualLockC1Em
                 U _ZN11CManualLockD1Ev
                 U _ZN11CProcessApi14WaitForProcessEiRjP7CCEventbj
                 U _ZN11CProcessApi17ProcessAttributesC1Ev
                 U _ZN11CProcessApi19GetCurrentProcessIdEv
                 U _ZN11CProcessApi22SetVerifyFileSignatureEP20IVerifyFileSignature
                 U _ZN11CProcessApi6LaunchERNS_17ProcessAttributesEPKcz
                 U _ZN11CProcessApi6LaunchERNS_17ProcessAttributesERSt6vectorIPKcSaIS4_EE
                 U _ZN11CProcessApi9TerminateEi
                 U _ZN11CProcessApiD1Ev
                 U _ZN11CURIUtility10URIEncoderERKSs
                 U _ZN11CURIUtility9URIEncodeERKSsRSs
00000000003bd3c0 B _ZN11HostProfile11ProtocolSSLE
0000000000106500 T _ZN11HostProfile11setHostNameERKSs
00000000001074a0 T _ZN11HostProfile12setAttributeERKSsS1_
00000000003bd3c8 B _ZN11HostProfile13ProtocolIPsecE
00000000003bd380 B _ZN11HostProfile14CertPolicyAutoE
00000000003bd370 B _ZN11HostProfile14CertPolicyNoneE
00000000001077a0 T _ZN11HostProfile14GetDescriptionEv
0000000000106550 T _ZN11HostProfile14setHostAddressERKSs
0000000000106480 T _ZN11HostProfile14setIKEIdentityERKSs
00000000001064c0 T _ZN11HostProfile15setCertAuthHashERKSs
00000000003bd390 B _ZN11HostProfile16CertPolicyManualE
00000000001060d0 T _ZN11HostProfile16setHostInProfileEb
00000000003bd3a8 B _ZN11HostProfile17AuthMethodEAP_GTCE
00000000003bd3b8 B _ZN11HostProfile17AuthMethodEAP_MD5E
00000000003bd3a0 B _ZN11HostProfile17AuthMethodIKE_RSAE
00000000001073e0 T _ZN11HostProfile18setPrimaryProtocolE19ConnectProtocolType
0000000000106400 T _ZN11HostProfile18setPrimaryProtocolERKSs
00000000003bd398 B _ZN11HostProfile19AuthMethodIKE_ECDSAE
0000000000106190 T _ZN11HostProfile19setStandardAuthOnlyEb
00000000001072f0 T _ZN11HostProfile20setCertificatePolicyE12CertAuthMode
00000000001065a0 T _ZN11HostProfile20setCertificatePolicyERKSs
0000000000109180 T _ZN11HostProfile21setActiveElementValueERKSs
00000000003bd3b0 B _ZN11HostProfile22AuthMethodEAP_MSCHAPv2E
0000000000107270 T _ZN11HostProfile25getNeverConnectDomainListEv
0000000000107230 T _ZN11HostProfile26getAlwaysConnectDomainListEv
00000000001072b0 T _ZN11HostProfile28getConnectIfNeededDomainListEv
00000000001075c0 T _ZN11HostProfile33setAuthMethodDuringIKENegotiationE16USER_AUTH_METHOD
0000000000106440 T _ZN11HostProfile33setAuthMethodDuringIKENegotiationERKSs
0000000000108d10 T _ZN11HostProfileaSERKS_
0000000000108380 T _ZN11HostProfileC1Eb
0000000000108590 T _ZN11HostProfileC1ERK9IHostData
0000000000108f50 T _ZN11HostProfileC1ERKS_
0000000000108380 T _ZN11HostProfileC2Eb
0000000000108590 T _ZN11HostProfileC2ERK9IHostData
0000000000108f50 T _ZN11HostProfileC2ERKS_
0000000000106ff0 T _ZN11HostProfileD0Ev
00000000001066c0 T _ZN11HostProfileD1Ev
00000000001066c0 T _ZN11HostProfileD2Ev
00000000003bcfc0 B _ZN11PromptEntry17SecondaryPasswordE
00000000003bcfc8 B _ZN11PromptEntry17SecondaryUsernameE
00000000003bcfa8 B _ZN11PromptEntry3PinE
00000000003bcfb0 B _ZN11PromptEntry6BannerE
00000000003bcfd0 B _ZN11PromptEntry8PasswordE
00000000000bb8d0 T _ZN11PromptEntry8setValueERKSs
00000000003bcfd8 B _ZN11PromptEntry8UsernameE
00000000003bcfb8 B _ZN11PromptEntry9GroupListE
00000000003bcf98 B _ZN11PromptEntry9NetAccessE
00000000003bcfa0 B _ZN11PromptEntry9VerifyPinE
00000000000bbad0 T _ZN11PromptEntryC1ESsSs10PromptTypeRKSsSt3mapISsSsSt4lessISsESaISt4pairIS1_SsEEE
00000000000bbad0 T _ZN11PromptEntryC2ESsSs10PromptTypeRKSsSt3mapISsSsSt4lessISsESaISt4pairIS1_SsEEE
                 U _ZN12CAcknowledge11getAckValueERi
                 U _ZN12CAcknowledgeC1ERlR11CIpcMessage14IPC_MESSAGE_ID
00000000001498a0 T _ZN12CAHSSettings11GetSettingsER11HS_SETTINGS
0000000000148d80 T _ZN12CAHSSettings17getAHSPreferencesER11HS_SETTINGS
0000000000148d20 T _ZN12CAHSSettingsC1Ev
0000000000148d20 T _ZN12CAHSSettingsC2Ev
0000000000148d50 T _ZN12CAHSSettingsD1Ev
0000000000148d50 T _ZN12CAHSSettingsD2Ev
                 U _ZN12CNetworkList16ResetNetworkListEv
                 U _ZN12COpenSSLHash6UpdateEPhRKj
                 U _ZN12COpenSSLHashC1ERlPKc
                 U _ZN12COpenSSLHashD1Ev
                 U _ZN12CRedirectTlv18GetRedirectAddressERSs
                 U _ZN12CRedirectTlv19GetPrimaryIPAddressERSs
                 U _ZN12CRedirectTlv21GetSecondaryIPAddressERSs
                 U _ZN12CRedirectTlvC1ERlR11CIpcMessage
                 U _ZN12CStoragePath15acquireInstanceEv
                 U _ZN12CStoragePath15releaseInstanceEv
                 U _ZN12CStoragePath23CreateSingletonInstanceERPS_RKSs
                 U _ZN12CStringUtils12formatStringEPKcz
                 U _ZN12CStringUtils13stringReplaceESsRKSsS1_
                 U _ZN12CStringUtils18compareWithWildStrERKSsS1_
                 U _ZN12CStringUtils25removeTrailingWhitespacesERKSsb
                 U _ZN12CStringUtils35removeLeadingAndTrailingWhitespacesERKSs
                 U _ZN12CStringUtils7toLowerERKSs
                 U _ZN12CVCSaxWriter10charactersERKSs
                 U _ZN12CVCSaxWriter10endElementERKSs
                 U _ZN12CVCSaxWriter11endDocumentEv
                 U _ZN12CVCSaxWriter11getDocumentEv
                 U _ZN12CVCSaxWriter12startElementERKSsPSt4listISt4pairISsSsESaIS4_EE
                 U _ZN12CVCSaxWriter13startDocumentEPSt4listISt4pairISsSsESaIS2_EE
                 U _ZN12CVCSaxWriter13writeDocumentEv
                 U _ZN12CVCSaxWriterC1ERKSsS1_S1_
                 U _ZN12CVCSaxWriterC2ERKSsS1_S1_
                 U _ZN12CVCSaxWriterD1Ev
                 U _ZN12CVCSaxWriterD2Ev
00000000000bb360 T _ZN12FirewallInfo10getDstAddrEv
00000000000bb070 T _ZN12FirewallInfo11getProtocolEv
00000000000bb170 T _ZN12FirewallInfo12getInterfaceEv
00000000000bafc0 T _ZN12FirewallInfo13getPermissionEv
00000000000bb2c0 T _ZN12FirewallInfo15getDstPortRangeEv
00000000000bb220 T _ZN12FirewallInfo15getSrcPortRangeEv
00000000000bae70 T _ZN12FirewallInfoC1E12FW_Interface13FW_Permission11FW_ProtocolttttSsj
00000000000baf20 T _ZN12FirewallInfoC1ERKS_
00000000000bae70 T _ZN12FirewallInfoC2E12FW_Interface13FW_Permission11FW_ProtocolttttSsj
00000000000baf20 T _ZN12FirewallInfoC2ERKS_
                 U _ZN12NVAttributes12hasAttributeERKSs
                 U _ZN12NVAttributes13numAttributesEv
                 U _ZN12NVAttributes17getAttributeValueERKSs
                 U _ZN12NVAttributes9addNVPairERKSsS1_
                 U _ZN12NVAttributesC2Ev
                 U _ZN12NVAttributesD2Ev
00000000003bd5c8 B _ZN12ProtocolInfo11CompressionE
00000000003bd5c0 B _ZN12ProtocolInfo11EmptyStringE
0000000000119aa0 T _ZN12ProtocolInfo14getProtocolMapEv
0000000000119ae0 T _ZN12ProtocolInfo16getProtocolValueERSs
0000000000119a60 T _ZN12ProtocolInfo26getProtocolInfoStringTableEv
00000000003b21e0 D _ZN12ProtocolInfo27sm_pProtocolInfoStringTableE
00000000003bd5e0 B _ZN12ProtocolInfo5StateE
00000000003bd5d0 B _ZN12ProtocolInfo6CipherE
0000000000119c20 T _ZN12ProtocolInfo8isActiveEv
00000000003bd5d8 B _ZN12ProtocolInfo8ProtocolE
0000000000119e40 T _ZN12ProtocolInfoC1E5STATE15ProtocolVersion14ProtocolCipher15COMPR_ALGORITHMb
0000000000119c60 T _ZN12ProtocolInfoC1EPKS_
0000000000119e40 T _ZN12ProtocolInfoC2E5STATE15ProtocolVersion14ProtocolCipher15COMPR_ALGORITHMb
0000000000119c60 T _ZN12ProtocolInfoC2EPKS_
0000000000119cf0 T _ZN12ProtocolInfoD1Ev
0000000000119cf0 T _ZN12ProtocolInfoD2Ev
                 U _ZN12UITranslator12NotAvailableE
                 U _ZN12UITranslator17ClientNameVersionE
                 U _ZN12UITranslator21SessionDisconnectNoneE
                 U _ZN12UITranslator22ErrorSavingPreferencesE
                 U _ZN12UITranslator4NoneE
                 U _ZN12UITranslator5ValueE
                 U _ZN12UITranslator7ConnectE
                 U _ZN12UITranslator7OptionsE
                 U _ZN12UITranslator9translateERKSs
                 U _ZN12UITranslatorC1Ev
                 U _ZN12UITranslatorD1Ev
000000000010e240 T _ZN12VPNStatsBase10setTNDInfoER15CSessionInfoTlv
00000000003bd568 B _ZN12VPNStatsBase11EmptyStringE
000000000010b170 T _ZN12VPNStatsBase11getStatsMapEv
000000000010b230 T _ZN12VPNStatsBase11StreamStatsERSo
000000000010bc80 T _ZN12VPNStatsBase12getStatValueERSs
00000000003bd560 B _ZN12VPNStatsBase12NotAvailableE
000000000010d430 T _ZN12VPNStatsBase12setStateInfoEP9CStateTlvR5STATER15VPNCON_SUBSTATES3_S5_R12NETENV_STATER13NETCTRL_STATER12NETWORK_TYPE
0000000000113580 T _ZN12VPNStatsBase12setStatValueERSsSs
000000000010cfd0 T _ZN12VPNStatsBase12setStatValueERSt3mapISsSsSt4lessISsESaISt4pairIKSsSsEEERSsSs
00000000003bd580 B _ZN12VPNStatsBase12sm_statsLockE
0000000000109e00 T _ZN12VPNStatsBase14hasSessionInfoEv
000000000010e900 T _ZN12VPNStatsBase14setSessionInfoEP15CSessionInfoTlv
000000000010a5d0 T _ZN12VPNStatsBase15getFirewallInfoEv
000000000010a570 T _ZN12VPNStatsBase15getProtocolInfoEv
000000000010a4b0 T _ZN12VPNStatsBase15getSecureRoutesEv
000000000010b1f0 T _ZN12VPNStatsBase15setDisconnectedEv
000000000010a140 T _ZN12VPNStatsBase16synchronizeListsERKS_
000000000010a020 T _ZN12VPNStatsBase17clearFirewallInfoEv
0000000000109e40 T _ZN12VPNStatsBase17clearProtocolInfoEv
0000000000109ee0 T _ZN12VPNStatsBase17clearSecureRoutesEv
000000000010a510 T _ZN12VPNStatsBase18getNonsecureRoutesEv
000000000010b1b0 T _ZN12VPNStatsBase18getSessionStatsMapEv
0000000000113640 T _ZN12VPNStatsBase18setIndividualStatsEP16CExtensibleStats
000000000010a630 T _ZN12VPNStatsBase19IsFirewallInfoEqualERS_
0000000000109f80 T _ZN12VPNStatsBase20clearNonSecureRoutesEv
0000000000115250 T _ZN12VPNStatsBase20ClearVPNSessionStatsEv
0000000000109dc0 T _ZN12VPNStatsBase22getVpnStatsStringTableEv
000000000010e540 T _ZN12VPNStatsBase22setClientOperatingModeEj
0000000000115020 T _ZN12VPNStatsBase23setConnectionStatisticsEP14CStatisticsTlv
00000000003b2060 D _ZN12VPNStatsBase23sm_pVpnStatsStringTableE
0000000000115180 T _ZN12VPNStatsBase25ClearConnectionStatisticsEv
0000000000109cb0 T _ZN12VPNStatsBase4initEv
000000000010a3c0 T _ZN12VPNStatsBaseaSERKS_
000000000010bab0 T _ZN12VPNStatsBaseC1ERKS_
000000000010b8f0 T _ZN12VPNStatsBaseC1Ev
000000000010bab0 T _ZN12VPNStatsBaseC2ERKS_
000000000010b8f0 T _ZN12VPNStatsBaseC2Ev
000000000010b8b0 T _ZN12VPNStatsBaseD0Ev
000000000010b6e0 T _ZN12VPNStatsBaseD1Ev
000000000010b6e0 T _ZN12VPNStatsBaseD2Ev
                 U _ZN13CCommandShell7ExecuteERSt4listISsSaISsEE
                 U _ZN13CCommandShellC1EPKc
                 U _ZN13CCommandShellD1Ev
                 U _ZN13CConfigCookie14UnescapeCookieERSs
                 U _ZN13CConfigCookie17ParseConfigCookieERKSs
                 U _ZN13CConfigCookieC1Ev
                 U _ZN13CConfigCookieD1Ev
                 U _ZN13CDnldrArgsTlv10SetBaseURIERKSs
                 U _ZN13CDnldrArgsTlv10SetL10nURIERKSs
                 U _ZN13CDnldrArgsTlv12SetConfigXmlERKSs
                 U _ZN13CDnldrArgsTlv12SetProxyHostERKSs
                 U _ZN13CDnldrArgsTlv12SetProxyPortERKSs
                 U _ZN13CDnldrArgsTlv12SetProxyTypeERKt
                 U _ZN13CDnldrArgsTlv12SetProxyUserERKSs
                 U _ZN13CDnldrArgsTlv12SetSessionIDERKSs
                 U _ZN13CDnldrArgsTlv13SetGatewayURLERKSs
                 U _ZN13CDnldrArgsTlv13SetProfileURIERKSs
                 U _ZN13CDnldrArgsTlv13SetProxyRealmERKSs
                 U _ZN13CDnldrArgsTlv14SetProfileHashERKSs
                 U _ZN13CDnldrArgsTlv14SetProxyStringERKSs
                 U _ZN13CDnldrArgsTlv14SetTunnelStateE5STATE
                 U _ZN13CDnldrArgsTlv15SetProxyMessageERKSs
                 U _ZN13CDnldrArgsTlv15SetSessionTokenERKSs
                 U _ZN13CDnldrArgsTlv16SetOperatingModeE18DnldrOperatingMode
                 U _ZN13CDnldrArgsTlv16SetProxyPasswordERKSs
                 U _ZN13CDnldrArgsTlv17SetConnectionTypeE19ConnectProtocolType
                 U _ZN13CDnldrArgsTlv17SetDetermineProxyERKb
                 U _ZN13CDnldrArgsTlv17SetProxyAuthorityERKSs
                 U _ZN13CDnldrArgsTlv17SetServerCertHashERKSs
                 U _ZN13CDnldrArgsTlv18SetCertificateInfoERK19CCertificateInfoTlv
                 U _ZN13CDnldrArgsTlv18SetOptionalModulesERKSs
                 U _ZN13CDnldrArgsTlv21SetSGFriendlyHostNameERKSs
                 U _ZN13CDnldrArgsTlv23SetExternalSSOLogoutUrlERKSs
                 U _ZN13CDnldrArgsTlv25SetAggAuthCertificateInfoERK19CCertificateInfoTlv
                 U _ZN13CDnldrArgsTlv25SetAlternativeProfileNameERKSs
                 U _ZN13CDnldrArgsTlv26SetGatewayPrimaryIPAddressERKSs
                 U _ZN13CDnldrArgsTlv28SetGatewaySecondaryIPAddressERKSs
                 U _ZN13CDnldrArgsTlvC1ERl
                 U _ZN13CFipsVerifier10EnableFipsEv
                 U _ZN13CFipsVerifier17MapStatusToStringEl
                 U _ZN13CFipsVerifier9SetStrictEb
                 U _ZN13CFipsVerifierC1Ev
                 U _ZN13CFipsVerifierD1Ev
                 U _ZN13CIpcTransport10connectIpcEN17CExecutionContext11INSTANCE_IDE11IPCDEPOT_IDt
                 U _ZN13CIpcTransport21negotiateMessageTypesEjRKSsj
                 U _ZN13CIpcTransport22terminateIpcConnectionEbj
                 U _ZN13CIpcTransport8writeIpcER11CIpcMessagePj
                 U _ZN13CIpcTransportC1ERlP15IIpcTransportCBPv
00000000000d2000 T _ZN13ClientIfcBase10disconnectEv
00000000000d1c30 T _ZN13ClientIfcBase10ExitNoticeERKSsi
00000000000d2100 T _ZN13ClientIfcBase10resetStatsEv
00000000000d2080 T _ZN13ClientIfcBase10startStatsEv
00000000000d1e80 T _ZN13ClientIfcBase10UserSubmitEv
00000000000d21c0 T _ZN13ClientIfcBase11exportStatsERKSs
00000000000d2920 T _ZN13ClientIfcBase11getAHSStateEv
00000000000d29a0 T _ZN13ClientIfcBase11isAHSHasRunEv
00000000000d3170 T _ZN13ClientIfcBase11isAvailableEv
00000000000d2720 T _ZN13ClientIfcBase11isConnectedEb
00000000000d1670 T _ZN13ClientIfcBase12ExitNoticeCBERKSsi
00000000000d1f80 T _ZN13ClientIfcBase12getHostNamesEv
00000000000d2420 T _ZN13ClientIfcBase12getStateTextE8VPNState11VPNSubState12NETENV_STATERKSs
00000000000d23e0 T _ZN13ClientIfcBase12getStateTextEv
00000000000d26a0 T _ZN13ClientIfcBase13getNetEnvTextE12NETENV_STATEb
00000000000d2a60 T _ZN13ClientIfcBase13ProcessEventsEv
00000000000d1c70 T _ZN13ClientIfcBase13setUserPromptER17ConnectPromptInfo
00000000000d16b0 T _ZN13ClientIfcBase14EventAvailableEv
00000000000d28e0 T _ZN13ClientIfcBase14getAHSHostListEv
00000000000d32b0 T _ZN13ClientIfcBase14getConnectHostEv
00000000000d1fc0 T _ZN13ClientIfcBase14getHostEntriesEv
00000000000d2620 T _ZN13ClientIfcBase14getNetCtrlTextE13NETCTRL_STATE
00000000000d2660 T _ZN13ClientIfcBase14getNetTypeTextE12NETWORK_TYPE
00000000000d2aa0 T _ZN13ClientIfcBase14getPreferencesEv
00000000000d1a10 T _ZN13ClientIfcBase14setCertBlockedERKSs
00000000000d1a50 T _ZN13ClientIfcBase14setCertWarningERKSsRKSt4listISsSaISsEEb
00000000000d2d60 T _ZN13ClientIfcBase14setDefaultHostERSs
00000000000d28a0 T _ZN13ClientIfcBase15AHSSelectedHostEjRKSt6vectorISsSaISsEElRKSs
00000000000d2320 T _ZN13ClientIfcBase15getCurrentStateEv
00000000000d2f60 T _ZN13ClientIfcBase15getLastVpnErrorEv
00000000000d1950 T _ZN13ClientIfcBase15getUserResponseEv
00000000000d2ba0 T _ZN13ClientIfcBase15isEventShutdownEv
00000000000d2de0 T _ZN13ClientIfcBase15isOperatingModeE13OperatingMode
00000000000d2b20 T _ZN13ClientIfcBase15processMinimizeEv
00000000000d2ae0 T _ZN13ClientIfcBase15savePreferencesEv
00000000000d2f20 T _ZN13ClientIfcBase15setLastVpnErrorE8VPNError
00000000000d3130 T _ZN13ClientIfcBase16handleIpcMessageEP11CIpcMessage
00000000000d2460 T _ZN13ClientIfcBase16setNetworkStatesE12NETENV_STATE13NETCTRL_STATE12NETWORK_TYPEbb
00000000000d2e20 T _ZN13ClientIfcBase16setOperatingModeE13OperatingMode
00000000000d27a0 T _ZN13ClientIfcBase17deliverActiveHostERKSs19ConnectProtocolTypeb
00000000000d25e0 T _ZN13ClientIfcBase17getCurrentNetTypeEv
00000000000d1b50 T _ZN13ClientIfcBase17getNoticeTypeTextE11MessageType
00000000000d1f40 T _ZN13ClientIfcBase17getVpnTunnelScopeEv
00000000000d2da0 T _ZN13ClientIfcBase17isLastConnectTypeE17ConnectPromptType
00000000000d19d0 T _ZN13ClientIfcBase17isUserResponseSetEv
00000000000d2be0 T _ZN13ClientIfcBase17isUsingEventModelEv
00000000000d2ce0 T _ZN13ClientIfcBase17isVPNServiceReadyEv
00000000000d1890 T _ZN13ClientIfcBase17setBannerResponseEb
00000000000d31b0 T _ZN13ClientIfcBase17setNewTunnelGroupERKSs
00000000000d3330 T _ZN13ClientIfcBase17syncProfileChangeERKSs
00000000000d2360 T _ZN13ClientIfcBase18getCurrentSubStateEv
00000000000d1ec0 T _ZN13ClientIfcBase18getDefaultHostNameEv
00000000000d2e60 T _ZN13ClientIfcBase18unsetOperatingModeE13OperatingMode
00000000000d23a0 T _ZN13ClientIfcBase19getPreviousSubStateEv
00000000000d1810 T _ZN13ClientIfcBase19hasFullCapabilitiesEv
00000000000d1990 T _ZN13ClientIfcBase19sendSSoLogoutPromptER17ConnectPromptInfo
00000000000d2b60 T _ZN13ClientIfcBase19setEnrollClientCertEP7CertObj
00000000000d29e0 T _ZN13ClientIfcBase19setProxyAuthPromptsEP8ProxyIfcRKSs
00000000000d27e0 T _ZN13ClientIfcBase20getConnectPromptInfoEv
00000000000d30f0 T _ZN13ClientIfcBase20getNetworkStatusTextE8VPNState11VPNSubState12NETENV_STATE13NETCTRL_STATE
00000000000d1610 T _ZN13ClientIfcBase20PreConnectReminderCBERKSs
00000000000d1a90 T _ZN13ClientIfcBase21getCertImportResponseEv
00000000000d24e0 T _ZN13ClientIfcBase21getCurrentNetEnvStateEv
00000000000d2c20 T _ZN13ClientIfcBase21getLastDisconnectTimeEv
00000000000d1f00 T _ZN13ClientIfcBase21getMgmtTunnelHostnameEv
00000000000d18d0 T _ZN13ClientIfcBase21setPreConnectReminderERKSs
00000000000d15b0 T _ZN13ClientIfcBase22deliverWebLaunchHostCBERKSs
00000000000d25a0 T _ZN13ClientIfcBase22getCurrentNetCtrlStateEv
00000000000d2560 T _ZN13ClientIfcBase22getPreviousNetEnvStateEv
00000000000d2960 T _ZN13ClientIfcBase22IsAHSCachingRestrictedEv
00000000000d2760 T _ZN13ClientIfcBase22isConnectRequestActiveEv
00000000000d2ca0 T _ZN13ClientIfcBase22isStandaloneConnectionEv
00000000000d1ad0 T _ZN13ClientIfcBase22setCertBlockedResponseEb
00000000000d1b10 T _ZN13ClientIfcBase22setCertWarningResponseEbb
00000000000d3490 T _ZN13ClientIfcBase23ClientIfcTransmigrationEv
00000000000d31f0 T _ZN13ClientIfcBase23linuxCertImportWarnUserEv
00000000000d2a20 T _ZN13ClientIfcBase23resetLastDisconnectTimeEl
00000000000d2c60 T _ZN13ClientIfcBase23setStandaloneConnectionEb
00000000000d26e0 T _ZN13ClientIfcBase24getQuarantinedStatusTextEv
00000000000d2ea0 T _ZN13ClientIfcBase25CanRemediateCaptivePortalEv
00000000000d2fa0 T _ZN13ClientIfcBase25requestImportLocalizationESsRKSt6vectorIhSaIhEE
00000000000d30b0 T _ZN13ClientIfcBase26getNetworkStatusSimpleTextE12NETENV_STATE13NETCTRL_STATE
00000000000d3070 T _ZN13ClientIfcBase26insertStateToConnectPromptER17ConnectPromptInfo
00000000000d22a0 T _ZN13ClientIfcBase27getCaptivePortalDetectedMsgEv
00000000000d2520 T _ZN13ClientIfcBase27isACBrowserForCPRemediationEv
00000000000d1910 T _ZN13ClientIfcBase29setPreConnectReminderResponseEv
00000000000d2d20 T _ZN13ClientIfcBase29suppressConnectionErrorPopupsEv
00000000000d2820 T _ZN13ClientIfcBase30resetConnectPromptPasswordDataEv
00000000000d3230 T _ZN13ClientIfcBase31linuxCertImportWarnUserResponseEb
00000000000d3370 T _ZN13ClientIfcBase32setExternalSSOLogoutUrlFromAgentERKSs
00000000000d2ee0 T _ZN13ClientIfcBase36policyAllowsCaptivePortalRemediationEv
00000000000d24a0 T _ZN13ClientIfcBase39refreshOperatingModeForCurrentNetStatesEv
00000000000d32f0 T _ZN13ClientIfcBase49activateConnectMgrTunnelInitiationCompletionEventEv
00000000000d17d0 T _ZN13ClientIfcBase6attachE10ClientTypebbb
00000000000d2040 T _ZN13ClientIfcBase6cancelEv
00000000000d1790 T _ZN13ClientIfcBase6detachEv
00000000000d1be0 T _ZN13ClientIfcBase6noticeER10MsgWithArg11MessageTypebbbb
00000000000d1b90 T _ZN13ClientIfcBase6noticeERKSs11MessageTypebbbb
00000000000d1cb0 T _ZN13ClientIfcBase7connectESs
00000000000d1d70 T _ZN13ClientIfcBase7connectESsj
00000000000d22e0 T _ZN13ClientIfcBase8getStateEv
00000000000d2140 T _ZN13ClientIfcBase8getStatsEv
00000000000d2250 T _ZN13ClientIfcBase8setStateE8VPNStateS0_11VPNSubStatebb
00000000000d2180 T _ZN13ClientIfcBase8setStatsER8VPNStats
00000000000d2860 T _ZN13ClientIfcBase8startAHSEjRK8ProxyIfc
00000000000d1550 T _ZN13ClientIfcBase8WMHintCBE6WMHint12WMHintReason
00000000000d2200 T _ZN13ClientIfcBase9initStateE8VPNStateS0_11VPNSubState
00000000000d1850 T _ZN13ClientIfcBase9setBannerERKSs
00000000000d1e40 T _ZN13ClientIfcBase9setWMHintE6WMHint12WMHintReason
00000000000d20c0 T _ZN13ClientIfcBase9stopStatsEv
00000000000d16f0 T _ZN13ClientIfcBaseC1Ev
00000000000d16f0 T _ZN13ClientIfcBaseC2Ev
00000000000d3450 T _ZN13ClientIfcBaseD0Ev
00000000000d33b0 T _ZN13ClientIfcBaseD1Ev
00000000000d33b0 T _ZN13ClientIfcBaseD2Ev
                 U _ZN13CNetInterface19EnumerateInterfacesERSt6vectorIN17CNetInterfaceBase14CInterfaceInfoESaIS2_EEbbb
                 U _ZN13CNetInterfaceC1ERlP19IDNSConfigSanitizer
                 U _ZN13CNetInterfaceD1Ev
                 U _ZN13CTerminateTlv13GetDelayLimitERm
                 U _ZN13CTerminateTlv13GetReasonCodeERNS_11REASON_CODEE
                 U _ZN13CTerminateTlvC1ERlR11CIpcMessage
                 U _ZN13MachineIDInfo12GetMachineIDERSs
00000000003bd230 B _ZN13PreferenceMgr11EmptyStringE
00000000003bd220 B _ZN13PreferenceMgr12sm_pInstanceE
00000000000c2b00 T _ZN13PreferenceMgr13getPreferenceE12PreferenceIdRP10Preference
00000000000c3820 T _ZN13PreferenceMgr13getProfileMgrERP10ProfileMgr
00000000000c3b80 T _ZN13PreferenceMgr14logPreferencesEv
00000000000c49c0 T _ZN13PreferenceMgr15acquireInstanceEv
00000000000c7780 T _ZN13PreferenceMgr15loadPreferencesERKSsS1_b16VPN_TUNNEL_SCOPE
00000000000c6720 T _ZN13PreferenceMgr15releaseInstanceEv
00000000000c3e40 T _ZN13PreferenceMgr15savePreferencesE15PreferenceScope
00000000003bd1e0 B _ZN13PreferenceMgr15sm_instanceLockE
00000000000c40a0 T _ZN13PreferenceMgr16mergePreferencesER14PreferenceInfoS1_15PreferenceScope
00000000000c5160 T _ZN13PreferenceMgr16updatePreferenceE12PreferenceIdRKSsb
00000000000c2990 T _ZN13PreferenceMgr17getCurrentProfileEv
00000000000c27c0 T _ZN13PreferenceMgr17getFileNameNoPathERKSs
00000000000c5d10 T _ZN13PreferenceMgr17getPreferenceInfoE15PreferenceScopeR14PreferenceInfo
00000000000c8100 T _ZN13PreferenceMgr17reloadLocalPolicyEv
00000000000c2a10 T _ZN13PreferenceMgr17setCurrentProfileERKSs
00000000000c6c70 T _ZN13PreferenceMgr18GetCertificatePinsERKSs19ConnectProtocolType
00000000000c7390 T _ZN13PreferenceMgr18getLocalPolicyInfoER17LocalACPolicyInfo
00000000000c2c90 T _ZN13PreferenceMgr18getPreferenceValueE12PreferenceIdRSs
00000000000c4a30 T _ZN13PreferenceMgr19GetAcquisitionCountEv
00000000000c6960 T _ZN13PreferenceMgr21AddPreferenceUpdateCBEP19IPreferenceUpdateCB
00000000003bd1c0 B _ZN13PreferenceMgr21sm_uiAcquisitionCountE
00000000000c39f0 T _ZN13PreferenceMgr22FipsModeModifiedOnDiskEv
00000000000c32a0 T _ZN13PreferenceMgr22GetAlwaysOnPreferencesERbS0_S0_RmRSt4listISsSaISsEER12CNetworkList
00000000000c38e0 T _ZN13PreferenceMgr22GetLocalPolicyLocationERSsS0_
00000000000c82f0 T _ZN13PreferenceMgr22loadPreferencesForHostERKSs16VPN_TUNNEL_SCOPE
00000000000c8630 T _ZN13PreferenceMgr23createSingletonInstanceERPS_bP19IPreferenceUpdateCB16VPN_TUNNEL_SCOPEbRKSt8weak_ptrI11IProfilesCBE
00000000000c7520 T _ZN13PreferenceMgr23GetAdministrativeDomainEv
00000000000c3a60 T _ZN13PreferenceMgr23getParsedPreferenceFileE15PreferenceScopeRP15UserPreferences
00000000000c2e30 T _ZN13PreferenceMgr23GetSupportedIPProtocolsER11ADDR_FAMILYS1_RbS2_
00000000000c67b0 T _ZN13PreferenceMgr24RemovePreferenceUpdateCBEP19IPreferenceUpdateCB
00000000000c4550 T _ZN13PreferenceMgr25invokePreferenceUpdateCBsEv
00000000000c42f0 T _ZN13PreferenceMgr27getAutomaticPreferenceValueE15PreferenceScope16AutoPreferenceIdRSs
00000000000c4490 T _ZN13PreferenceMgr27setAutomaticPreferenceValueE15PreferenceScope16AutoPreferenceIdRKSs
00000000000c5060 T _ZN13PreferenceMgr28IsPrefStoredControllablePrefE12PreferenceId
00000000000c6a40 T _ZN13PreferenceMgrC1ERKSt8weak_ptrI11IProfilesCBEbP19IPreferenceUpdateCB16VPN_TUNNEL_SCOPE
00000000000c6a40 T _ZN13PreferenceMgrC2ERKSt8weak_ptrI11IProfilesCBEbP19IPreferenceUpdateCB16VPN_TUNNEL_SCOPE
00000000000c64d0 T _ZN13PreferenceMgrD1Ev
00000000000c64d0 T _ZN13PreferenceMgrD2Ev
0000000000140990 T _ZN13XmlAggAuthMgrC1ERlRKSsb
0000000000140990 T _ZN13XmlAggAuthMgrC2ERlRKSsb
                 U _ZN14CApiCommandTlv14GetStringParamERSs
                 U _ZN14CApiCommandTlv14SetStringParamERKSs
                 U _ZN14CApiCommandTlvC1ERl14IPC_MESSAGE_IDR16CIpcResponseInfo
                 U _ZN14CApiCommandTlvC1ERlR11CIpcMessage14IPC_MESSAGE_ID
000000000011ae10 T _ZN14ConnectIfcData10clearProxyEv
000000000011a760 T _ZN14ConnectIfcData10getHostURLEv
000000000011aa30 T _ZN14ConnectIfcData10getOrigURLEv
000000000011c4f0 T _ZN14ConnectIfcData10hasCSDDataEv
000000000011aac0 T _ZN14ConnectIfcData10setOrigURLESs
000000000011aa80 T _ZN14ConnectIfcData10setOrigURLEv
000000000011c7d0 T _ZN14ConnectIfcData11getCSDEventEv
000000000011a940 T _ZN14ConnectIfcData11getLocationEv
000000000011c560 T _ZN14ConnectIfcData11hasCSDTokenEv
000000000011a900 T _ZN14ConnectIfcData11setLocationESs
000000000011c5a0 T _ZN14ConnectIfcData12clearCSDDataEv
000000000011af30 T _ZN14ConnectIfcData12getLastErrorEv
000000000011ca90 T _ZN14ConnectIfcData12getUseCsdApiEv
000000000011aeb0 T _ZN14ConnectIfcData12setLastErrorEPKcl
000000000011c9d0 T _ZN14ConnectIfcData12setUseCsdApiEv
0000000000121240 T _ZN14ConnectIfcData13addCredentialERKSsS1_
000000000011b140 T _ZN14ConnectIfcData13getAuthCookieEv
000000000011b100 T _ZN14ConnectIfcData13hasAuthCookieEv
000000000011b200 T _ZN14ConnectIfcData13setAuthCookieERKSs
000000000011ca30 T _ZN14ConnectIfcData14clearUseCsdApiEv
00000000001226f0 T _ZN14ConnectIfcData14createCSDEventEv
000000000011ce30 T _ZN14ConnectIfcData14getCSDApiStateEv
000000000011c2c0 T _ZN14ConnectIfcData14hasCredentialsEv
000000000011c780 T _ZN14ConnectIfcData14removeCSDEventEv
000000000011cd70 T _ZN14ConnectIfcData14setCSDApiStateE15CSDApiStateType
000000000011b180 T _ZN14ConnectIfcData15clearAuthCookieEv
000000000011b030 T _ZN14ConnectIfcData15getConfigCookieEv
000000000011cf90 T _ZN14ConnectIfcData15getCsdErrorTextEv
0000000000122380 T _ZN14ConnectIfcData15getCSDEventNameEv
000000000011ad00 T _ZN14ConnectIfcData15getDestFilePathEv
000000000011d110 T _ZN14ConnectIfcData15getHostScanTextEv
000000000011a9e0 T _ZN14ConnectIfcData15getOrigLocationEv
000000000011afb0 T _ZN14ConnectIfcData15getResponseTypeEv
000000000011aff0 T _ZN14ConnectIfcData15hasConfigCookieEv
000000000011b070 T _ZN14ConnectIfcData15setConfigCookieERKSs
000000000011ce90 T _ZN14ConnectIfcData15setCsdErrorTextERKSs
000000000011ad50 T _ZN14ConnectIfcData15setDestFilePathESs
000000000011d010 T _ZN14ConnectIfcData15setHostScanTextERKSs
000000000011af70 T _ZN14ConnectIfcData15setResponseTypeE12ResponseType
000000000011b4b0 T _ZN14ConnectIfcData15setSsoSessionIdESs
000000000011c090 T _ZN14ConnectIfcData15useEnrollmentCAEv
000000000011ccd0 T _ZN14ConnectIfcData16clearAggAuthDataEv
000000000011c6c0 T _ZN14ConnectIfcData16hasCSDEventFiredEv
000000000011cdd0 T _ZN14ConnectIfcData16resetCSDApiStateEv
000000000011c700 T _ZN14ConnectIfcData16setCSDEventFiredEv
000000000011b0b0 T _ZN14ConnectIfcData17clearConfigCookieEv
000000000011c260 T _ZN14ConnectIfcData17clearResponseBlobEv
000000000011b4f0 T _ZN14ConnectIfcData17clearSsoSessionIdEv
000000000011bdb0 T _ZN14ConnectIfcData17getClientAuthCertEv
000000000011ac80 T _ZN14ConnectIfcData17getDetermineProxyEv
000000000011b3b0 T _ZN14ConnectIfcData17getGroupURLCookieEv
000000000011b8d0 T _ZN14ConnectIfcData17getResponseStringEv
000000000011bd70 T _ZN14ConnectIfcData17hasClientAuthCertEv
000000000011b370 T _ZN14ConnectIfcData17hasGroupURLCookieEv
000000000011bc50 T _ZN14ConnectIfcData17hasServerCertHashEv
000000000011cf10 T _ZN14ConnectIfcData17resetCsdErrorTextEv
000000000011d090 T _ZN14ConnectIfcData17resetHostScanTextEv
000000000011bd30 T _ZN14ConnectIfcData17setClientAuthCertEP7CertObj
000000000011acc0 T _ZN14ConnectIfcData17setDetermineProxyEb
000000000011b3f0 T _ZN14ConnectIfcData17setGroupURLCookieESs
000000000011b990 T _ZN14ConnectIfcData17setResponseStringERKSs
000000000011c740 T _ZN14ConnectIfcData18clearCSDEventFiredEv
000000000011c300 T _ZN14ConnectIfcData18getCredentialNamesERSt4listISsSaISsEE
000000000011c3d0 T _ZN14ConnectIfcData18getCredentialValueESs
000000000011d6b0 T _ZN14ConnectIfcData18isCertAuthTimedOutEv
000000000011c810 T _ZN14ConnectIfcData18isCSDTokenVerifiedEv
000000000011c050 T _ZN14ConnectIfcData18setUseEnrollmentCAEb
000000000011bdf0 T _ZN14ConnectIfcData19clearClientAuthCertEv
000000000011fcf0 T _ZN14ConnectIfcData19clearCredentialsMapERSt3mapISs12SecureStringISsESt4lessISsESaISt4pairIKSsS2_EEE
000000000011fd50 T _ZN14ConnectIfcData19clearCredentialsMapEv
000000000011b910 T _ZN14ConnectIfcData19clearResponseStringEv
000000000011bc90 T _ZN14ConnectIfcData19clearServerCertHashEv
000000000011b2e0 T _ZN14ConnectIfcData19getAvailableVersionEv
000000000011bbc0 T _ZN14ConnectIfcData19getCertMatchPatternEv
000000000011c1a0 T _ZN14ConnectIfcData19getEnrollmentCAHrefEv
000000000011c890 T _ZN14ConnectIfcData19getProcessedCSDDataEv
000000000011b2a0 T _ZN14ConnectIfcData19hasAvailableVersionEv
000000000011c110 T _ZN14ConnectIfcData19hasEnrollmentCAHrefEv
000000000011cbb0 T _ZN14ConnectIfcData19isCsdApiInitializedEv
000000000011b260 T _ZN14ConnectIfcData19setAvailableVersionERKSs
000000000011d650 T _ZN14ConnectIfcData19setCertAuthTimedOutEb
000000000011bb80 T _ZN14ConnectIfcData19setCertMatchPatternESs
000000000011c680 T _ZN14ConnectIfcData19setCSDTokenVerifiedEv
000000000011c0d0 T _ZN14ConnectIfcData19setEnrollmentCAHrefESs
000000000011c850 T _ZN14ConnectIfcData19setProcessedCSDDataEv
000000000011b730 T _ZN14ConnectIfcData19setSsoSessionIdHashESs
000000000011d710 T _ZN14ConnectIfcData19updateHostAddressesERKSsS1_
000000000011ab80 T _ZN14ConnectIfcData20getCachedProxyStringEv
000000000011d210 T _ZN14ConnectIfcData20GetContentTypeStringE11ContentType
00000000001213c0 T _ZN14ConnectIfcData20getCredentialMapCopyERSt3mapISs12SecureStringISsESt4lessISsESaISt4pairIKSsS2_EEE
000000000011beb0 T _ZN14ConnectIfcData20setAggAuthClientCertEP7CertObj
000000000011abd0 T _ZN14ConnectIfcData20setCachedProxyStringERKSs
000000000011caf0 T _ZN14ConnectIfcData20setCsdApiInitializedEv
000000000011b320 T _ZN14ConnectIfcData21clearAvailableVersionEv
000000000011c640 T _ZN14ConnectIfcData21clearCSDTokenVerifiedEv
000000000011c8d0 T _ZN14ConnectIfcData21clearProcessedCSDDataEv
000000000011b770 T _ZN14ConnectIfcData21clearSsoSessionIdHashEv
000000000011d2e0 T _ZN14ConnectIfcData21GetResponseTypeStringE12ResponseType
000000000011c950 T _ZN14ConnectIfcData21getVerifyCSDTokenOnlyEv
000000000011b5f0 T _ZN14ConnectIfcData21setSsoSessionIdBase64ESs
000000000011c910 T _ZN14ConnectIfcData21setVerifyCSDTokenOnlyEv
00000000003bd600 B _ZN14ConnectIfcData21sm_ConnectIfcDataLockE
000000000011bf70 T _ZN14ConnectIfcData22clearAggAuthClientCertEv
000000000011ac30 T _ZN14ConnectIfcData22clearCachedProxyStringEv
000000000011cb50 T _ZN14ConnectIfcData22clearCsdApiInitializedEv
000000000011cc90 T _ZN14ConnectIfcData22getUserPromptDisplayedEv
000000000011cc10 T _ZN14ConnectIfcData22setUserPromptDisplayedEv
000000000011b630 T _ZN14ConnectIfcData23clearSsoSessionIdBase64Ev
000000000011c990 T _ZN14ConnectIfcData23clearVerifyCSDTokenOnlyEv
000000000011bce0 T _ZN14ConnectIfcData23getServerCertThumbprintEv
000000000011bc00 T _ZN14ConnectIfcData23setServerCertThumbprintERKSs
000000000011cc50 T _ZN14ConnectIfcData24clearUserPromptDisplayedEv
000000000011da00 T _ZN14ConnectIfcData24isSsoAuthPollTimeExpiredEv
000000000011d970 T _ZN14ConnectIfcData24setSsoAuthPollExpireTimeEm
000000000011be30 T _ZN14ConnectIfcData25setClientAuthCertAcceptedEv
000000000011b840 T _ZN14ConnectIfcData25setSsoSessionIdHashBase64ESs
000000000011be70 T _ZN14ConnectIfcData27clearClientAuthCertAcceptedEv
000000000011b880 T _ZN14ConnectIfcData27clearSsoSessionIdHashBase64Ev
000000000011bfb0 T _ZN14ConnectIfcData31clearMultiClientCertRequestInfoEv
000000000011da70 T _ZN14ConnectIfcData31HashAndSignMultiCertRequestDataEP7CertObjRSs
000000000011d190 T _ZN14ConnectIfcData5isGUIEv
000000000011fd90 T _ZN14ConnectIfcData5resetEv
000000000011a990 T _ZN14ConnectIfcData6getURLEv
000000000011d1d0 T _ZN14ConnectIfcData6setGUIEb
000000000011f1b0 T _ZN14ConnectIfcData6setURLESs
000000000011a710 T _ZN14ConnectIfcData7getHostEv
000000000011a8b0 T _ZN14ConnectIfcData7getPortEv
000000000011a6d0 T _ZN14ConnectIfcData7hasHostEv
000000000011a810 T _ZN14ConnectIfcData7hasPortEv
000000000011ebb0 T _ZN14ConnectIfcData7setHostESs
000000000011a7b0 T _ZN14ConnectIfcData7setPortESs
000000000011add0 T _ZN14ConnectIfcData8getProxyEv
000000000011ad90 T _ZN14ConnectIfcData8hasProxyEv
000000000011ae60 T _ZN14ConnectIfcData8setProxyEP8ProxyIfc
000000000011c1e0 T _ZN14ConnectIfcData9getOpcodeEv
000000000011c220 T _ZN14ConnectIfcData9setOpcodeE9Operation
0000000000121580 T _ZN14ConnectIfcDataaSERKS_
0000000000121b10 T _ZN14ConnectIfcDataC1ERKS_
000000000011f6d0 T _ZN14ConnectIfcDataC1Ev
0000000000121b10 T _ZN14ConnectIfcDataC2ERKS_
000000000011f6d0 T _ZN14ConnectIfcDataC2Ev
0000000000121200 T _ZN14ConnectIfcDataD0Ev
0000000000120160 T _ZN14ConnectIfcDataD1Ev
0000000000120160 T _ZN14ConnectIfcDataD2Ev
00000000001607d0 T _ZN14CPublicProxies19ObtainProxySettingsEb
00000000001606e0 T _ZN14CPublicProxies23CreateSingletonInstanceERPS_P16IPublicProxiesCB
0000000000160590 T _ZN14CPublicProxies28GetProxySupportedIPProtocolsER11ADDR_FAMILYS1_
00000000001604d0 T _ZN14CPublicProxies30GetDnsServersForNameResolutionER11CIPAddrList
                 U _ZN14CRSASecurIDSDI11GetNextCodeEbRSs
                 U _ZN14CRSASecurIDSDI13GenerateCodesERKSsb
                 U _ZN14CRSASecurIDSDI13RequestCancelEv
                 U _ZN14CRSASecurIDSDI18ResetRequestCancelEv
                 U _ZN14CRSASecurIDSDI24IsTokenSoftwareAvailableEv
                 U _ZN14CRSASecurIDSDI7GetCodeEbRSs
                 U _ZN14CRSASecurIDSDIC1ERl
                 U _ZN14CStatisticsTlv17GetStatisticsInfoER16CExtensibleStats
                 U _ZN14CSWSofTokenIfc24IsTokenSoftwareAvailableEv
                 U _ZN14CSWSofTokenIfcC1ERl
                 U _ZN14NotifyAgentTlv14SetSCEPHostUrlERKSs
                 U _ZN14NotifyAgentTlvC1ERl14IPC_MESSAGE_ID
00000000003bd0b8 B _ZN14PreferenceBase10DisconnectE
00000000003bd150 B _ZN14PreferenceBase10LoginStoreE
00000000000be6e0 T _ZN14PreferenceBase11getParentIdE12PreferenceId
00000000003bd0f8 B _ZN14PreferenceBase11ProxyNativeE
00000000003bd120 B _ZN14PreferenceBase11SingleLogonE
00000000003bd158 B _ZN14PreferenceBase11SystemStoreE
00000000003bd140 B _ZN14PreferenceBase11UserPEMFileE
00000000003bd168 B _ZN14PreferenceBase12MachineStoreE
00000000003bd0a8 B _ZN14PreferenceBase12SameUserOnlyE
00000000003bd128 B _ZN14PreferenceBase13HardwareTokenE
00000000003bd0e8 B _ZN14PreferenceBase13ProxyOverrideE
00000000003bd130 B _ZN14PreferenceBase13SoftwareTokenE
00000000003bd108 B _ZN14PreferenceBase14LocalUsersOnlyE
00000000003bd148 B _ZN14PreferenceBase14UserFirefoxNSSE
00000000003bd100 B _ZN14PreferenceBase16AllowRemoteUsersE
00000000003bd0f0 B _ZN14PreferenceBase16ProxyIgnoreProxyE
00000000003bd118 B _ZN14PreferenceBase16SingleLocalLogonE
00000000003bc760 D _ZN14PreferenceBase16sm_attributeStrsE
00000000000bdff0 T _ZN14PreferenceBase17isValidPreferenceE12PreferenceId
00000000003bd190 B _ZN14PreferenceBase17PreferenceEnabledE
00000000000be2a0 T _ZN14PreferenceBase18addChildPreferenceEP10Preference
00000000000be750 T _ZN14PreferenceBase18isParentPreferenceE12PreferenceId
00000000003bd188 B _ZN14PreferenceBase18PreferenceDisabledE
00000000000be090 T _ZN14PreferenceBase18setPreferenceValueERKSs
00000000003bd180 B _ZN14PreferenceBase19DisconnectOnSuspendE
00000000000bdfb0 T _ZN14PreferenceBase19isPreferenceDefinedE12PreferenceId
00000000003bd0d8 B _ZN14PreferenceBase19PPPExclusionDisableE
00000000003bd110 B _ZN14PreferenceBase19SingleLogonNoRemoteE
00000000003bd0d0 B _ZN14PreferenceBase20PPPExclusionOverrideE
00000000003bd178 B _ZN14PreferenceBase20ReconnectAfterResumeE
00000000003bd090 B _ZN14PreferenceBase21PasswordComplexityPinE
00000000003bd0e0 B _ZN14PreferenceBase21PPPExclusionAutomaticE
00000000000be310 T _ZN14PreferenceBase21removeChildPreferenceEP10Preference
00000000003b9040 D _ZN14PreferenceBase21sm_defaultPreferencesE
00000000000bf040 T _ZN14PreferenceBase22createPreferenceFromIdE12PreferenceId
00000000000be4a0 T _ZN14PreferenceBase22getAttributeIdFromNameERKSs
00000000000be610 T _ZN14PreferenceBase22getAttributeNameFromIdE19PreferenceAttribute
00000000000be110 T _ZN14PreferenceBase22getPreferenceAttributeERK19PreferenceAttribute
00000000000be1a0 T _ZN14PreferenceBase22setPreferenceAttributeERK19PreferenceAttributeb
00000000000be410 T _ZN14PreferenceBase23getPreferenceIdFromNameERKSs
00000000000be590 T _ZN14PreferenceBase23getPreferenceNameFromIdE12PreferenceId
00000000003bd098 B _ZN14PreferenceBase23PasswordComplexityAlphaE
00000000000be680 T _ZN14PreferenceBase24getPreferenceScopeFromIdE12PreferenceId
00000000003bd088 B _ZN14PreferenceBase24PasswordComplexityStrongE
00000000003bd070 B _ZN14PreferenceBase4IPv4E
00000000003bd068 B _ZN14PreferenceBase4IPv6E
00000000003bd080 B _ZN14PreferenceBase4OpenE
00000000003bd0c0 B _ZN14PreferenceBase5PauseE
00000000003bd078 B _ZN14PreferenceBase6ClosedE
00000000003bd0a0 B _ZN14PreferenceBase7AnyUserE
00000000003bd0c8 B _ZN14PreferenceBase7ConnectE
00000000000be7a0 T _ZN14PreferenceBase8deepCopyERKS_
00000000003bd170 B _ZN14PreferenceBase9AllStoresE
00000000003bd138 B _ZN14PreferenceBase9AutomaticE
00000000003bd0b0 B _ZN14PreferenceBase9DoNothingE
00000000003bd060 B _ZN14PreferenceBase9IPv4_IPv6E
00000000003bd058 B _ZN14PreferenceBase9IPv6_IPv4E
00000000003bd160 B _ZN14PreferenceBase9UserStoreE
00000000000bea10 T _ZN14PreferenceBaseC1E12PreferenceIdRKSs10PromptTypeS2_PSt3mapISsSsSt4lessISsESaISt4pairIS1_SsEEEP10Preference
00000000000bea10 T _ZN14PreferenceBaseC2E12PreferenceIdRKSs10PromptTypeS2_PSt3mapISsSsSt4lessISsESaISt4pairIS1_SsEEEP10Preference
00000000000bdf70 T _ZN14PreferenceBaseD0Ev
00000000000bdee0 T _ZN14PreferenceBaseD1Ev
00000000000bdee0 T _ZN14PreferenceBaseD2Ev
00000000000c2670 T _ZN14PreferenceInfoC1Ev
00000000000c2670 T _ZN14PreferenceInfoC2Ev
0000000000118c30 T _ZN14VPNStatsWriter11ExportStatsERKSs
00000000001165a0 T _ZN14VPNStatsWriter17replaceLFWithCRLFERKSsRSs
0000000000117650 T _ZN14VPNStatsWriter21outputCommandToStreamERKSsRSt18basic_stringstreamIcSt11char_traitsIcESaIcEE
0000000000117980 T _ZN14VPNStatsWriter22ExportStatisticsToFileERKSs
0000000000115c50 T _ZN14VPNStatsWriter29ExportStatisticsToEventViewerEv
00000000001175b0 T _ZN14VPNStatsWriterC1ER8VPNStats
00000000001175b0 T _ZN14VPNStatsWriterC2ER8VPNStats
0000000000117610 T _ZN14VPNStatsWriterD1Ev
0000000000117610 T _ZN14VPNStatsWriterD2Ev
                 U _ZN15CKeyExchangeTLV12GetPublicKeyERPhRj
                 U _ZN15CKeyExchangeTLV15SetEncryptedKeyEPKhj
                 U _ZN15CKeyExchangeTLV17GetVpnTunnelScopeER16VPN_TUNNEL_SCOPE
                 U _ZN15CKeyExchangeTLV17SetVpnTunnelScopeE16VPN_TUNNEL_SCOPE
                 U _ZN15CKeyExchangeTLVC1ERlR11CIpcMessage
                 U _ZN15CKeyExchangeTLVC1ERlR16CIpcResponseInfo
0000000000166290 T _ZN15CMgmtTunnelUtil21initMandatoryValueMapEv
0000000000166790 T _ZN15CMgmtTunnelUtil23IsPreferenceOverridableE12PreferenceId
0000000000166820 T _ZN15CMgmtTunnelUtil23OverridePreferenceValueE12PreferenceIdRSsRb
00000000003bd9d0 B _ZN15CMgmtTunnelUtil29sm_preferenceToMandatoryValueE
0000000000144a10 T _ZN15CommandLineArgs11GetArgValueERKSsRSs
0000000000144af0 T _ZN15CommandLineArgs12IsArgPresentERKSs
00000000001448a0 T _ZN15CommandLineArgs16ParseCommandLineEjPPc
0000000000144840 T _ZN15CommandLineArgsC1Ev
0000000000144840 T _ZN15CommandLineArgsC2Ev
00000000001447c0 T _ZN15CommandLineArgsD0Ev
0000000000144740 T _ZN15CommandLineArgsD1Ev
0000000000144740 T _ZN15CommandLineArgsD2Ev
                 U _ZN15COpensslUtility11GenerateKeyEPcjj
                 U _ZN15COpensslUtility11InitOpenSSLEb
                 U _ZN15COpensslUtility19GetLastOpenSSLErrorEv
                 U _ZN15CSessionInfoTlv10GetFwRulesEP15FW_RULES_STATUSRj
                 U _ZN15CSessionInfoTlv12getProxyPortERt
                 U _ZN15CSessionInfoTlv13getSGHostNameERSs
                 U _ZN15CSessionInfoTlv14GetAlwaysOnVPNER13ALWAYS_ON_VPN
                 U _ZN15CSessionInfoTlv14GetProfileNameERSs
                 U _ZN15CSessionInfoTlv14getProxyIPAddrERSs
                 U _ZN15CSessionInfoTlv14GetVpnProtocolER19ConnectProtocolType
                 U _ZN15CSessionInfoTlv15GetSecureRoutesE11ADDR_FAMILYP13ROUTES_STATUSRj
                 U _ZN15CSessionInfoTlv16GetInvokedByCodeERSs
                 U _ZN15CSessionInfoTlv16getProxyHostNameERSs
                 U _ZN15CSessionInfoTlv16GetTunnelingModeE11ADDR_FAMILYR14TUNNELING_MODE
                 U _ZN15CSessionInfoTlv17getClientIPv4AddrERSs
                 U _ZN15CSessionInfoTlv17getClientIPv6AddrERSs
                 U _ZN15CSessionInfoTlv17GetDAPUserMessageERSs
                 U _ZN15CSessionInfoTlv18GetNonsecureRoutesE11ADDR_FAMILYP13ROUTES_STATUSRj
                 U _ZN15CSessionInfoTlv18GetQuarantineStateER16QUARANTINE_STATE
                 U _ZN15CSessionInfoTlv19GetSessionInfoScopeERNS_18SESSION_INFO_SCOPEE
                 U _ZN15CSessionInfoTlv22GetClientOperatingModeERj
                 U _ZN15CSessionInfoTlv22GetDynamicSecureRoutesE11ADDR_FAMILYP17DYN_ROUTES_STATUSRj
                 U _ZN15CSessionInfoTlv22GetOnConnectScriptNameERSs
                 U _ZN15CSessionInfoTlv23GetAdministrativeDomainERSs
                 U _ZN15CSessionInfoTlv25GetDynamicNonsecureRoutesE11ADDR_FAMILYP17DYN_ROUTES_STATUSRj
                 U _ZN15CSessionInfoTlv25GetDynamicSplitTunDomainsE18DYN_SPLIT_TUN_TYPERSs
                 U _ZN15CSessionInfoTlv25GetOnDisconnectScriptNameERSs
                 U _ZN15CSessionInfoTlv26GetAppliedSecureRouteCountE11ADDR_FAMILYRt
                 U _ZN15CSessionInfoTlv29GetAppliedNonsecureRouteCountE11ADDR_FAMILYRt
                 U _ZN15CSessionInfoTlv9getSGAddrERSs
                 U _ZN15CUserMessageTlv10GetMessageEjRSsRb
00000000000bbd70 T _ZN15PromptEntryBase10clearValueEv
00000000000bc310 T _ZN15PromptEntryBase10setEnabledEb
00000000000bc390 T _ZN15PromptEntryBase10setVisibleEb
00000000003bd048 B _ZN15PromptEntryBase11EmptyStringE
00000000000bbd30 T _ZN15PromptEntryBase13setEntryGroupEb
00000000000bc210 T _ZN15PromptEntryBase14setPromptLabelESs
00000000000992e0 W _ZN15PromptEntryBase15GroupAttributesD1Ev
00000000000992e0 W _ZN15PromptEntryBase15GroupAttributesD2Ev
00000000003bcfe0 B _ZN15PromptEntryBase16EmptyLabelValuesE
0000000000098d40 W _ZN15PromptEntryBase16SingleAttributesD1Ev
0000000000098d40 W _ZN15PromptEntryBase16SingleAttributesD2Ev
00000000000bc570 T _ZN15PromptEntryBase19setSingleAttributesERKNS_16SingleAttributesE
00000000000bd790 T _ZN15PromptEntryBase21setGroupAttributesMapERKSt3mapISsNS_15GroupAttributesESt4lessISsESaISt4pairIKSsS1_EEE
00000000000bd300 T _ZN15PromptEntryBase22copyGroupAttributesMapERKSt3mapISsNS_15GroupAttributesESt4lessISsESaISt4pairIKSsS1_EEERS8_
00000000003bd020 B _ZN15PromptEntryBase22DefaultGroupAttributesE
00000000000bc670 T _ZN15PromptEntryBase23GetGroupAttributesCountEv
00000000000bd5d0 T _ZN15PromptEntryBase8deepCopyERKS_
00000000000bbe00 T _ZN15PromptEntryBase8setValueERKSs
00000000003bd010 B _ZN15PromptEntryBase9EmptyListE
00000000000bca80 T _ZN15PromptEntryBaseC1ESsSs10PromptTypeRKSsSt3mapISsSsSt4lessISsESaISt4pairIS1_SsEEE
00000000000bca80 T _ZN15PromptEntryBaseC2ESsSs10PromptTypeRKSsSt3mapISsSsSt4lessISsESaISt4pairIS1_SsEEE
00000000000bca40 T _ZN15PromptEntryBaseD0Ev
00000000000bc6b0 T _ZN15PromptEntryBaseD1Ev
00000000000bc6b0 T _ZN15PromptEntryBaseD2Ev
0000000000123870 T _ZN15UserPreferences10hasUpdatesEb
0000000000123810 T _ZN15UserPreferences10hasUpdatesEv
00000000003bd690 B _ZN15UserPreferences10NoSDITokenE
00000000003bd728 B _ZN15UserPreferences10TrueStringE
00000000003bd6f8 B _ZN15UserPreferences11DefaultHostE
00000000003bd710 B _ZN15UserPreferences11DefaultUserE
00000000003bd720 B _ZN15UserPreferences11FalseStringE
00000000003bd6d0 B _ZN15UserPreferences12DefaultGroupE
0000000000123470 T _ZN15UserPreferences12getProxyHostEv
00000000001234f0 T _ZN15UserPreferences12getProxyPortEv
00000000003bd6a0 B _ZN15UserPreferences12SDITokenTypeE
0000000000123d50 T _ZN15UserPreferences12setProxyHostERKSs
0000000000123e30 T _ZN15UserPreferences12setProxyPortERKSs
0000000000123570 T _ZN15UserPreferences14getAHSCacheXMLEv
00000000001231f0 T _ZN15UserPreferences14getDefaultUserEv
0000000000124ce0 T _ZN15UserPreferences14setAHSCacheXMLERKSs
0000000000123a90 T _ZN15UserPreferences14setDefaultUserERKSs
0000000000124e40 T _ZN15UserPreferences14StoreAttributeEP12SaxWriterIfcRKSsS3_
00000000003bd6f0 B _ZN15UserPreferences15DefaultHostNameE
0000000000125640 T _ZN15UserPreferences15extractAHSCacheERKSs
00000000001233f0 T _ZN15UserPreferences15getDefaultGroupEv
0000000000124c60 T _ZN15UserPreferences15getSDITokenTypeEv
0000000000127fd0 T _ZN15UserPreferences15loadPreferencesEv
0000000000123c70 T _ZN15UserPreferences15setDefaultGroupERKSs
00000000001249b0 T _ZN15UserPreferences15setSDITokenTypeE12SDITokenType
0000000000124eb0 T _ZN15UserPreferences16getPreferenceDirE15PreferenceScopeRKSsb
00000000001250f0 T _ZN15UserPreferences16getPreferenceXmlERKSs
00000000003bd700 B _ZN15UserPreferences17DefaultSecondUserE
00000000003bd6e0 B _ZN15UserPreferences18DefaultHostAddressE
00000000001232f0 T _ZN15UserPreferences18getDefaultHostNameEv
00000000001238d0 T _ZN15UserPreferences18setDefaultHostNameERKSs
00000000001240d0 T _ZN15UserPreferences19convertSDITokenTypeE12SDITokenType
0000000000124b00 T _ZN15UserPreferences19convertSDITokenTypeERKSs
00000000003bd680 B _ZN15UserPreferences20ClientCertThumbprintE
0000000000123270 T _ZN15UserPreferences20getDefaultSecondUserEv
00000000003bd660 B _ZN15UserPreferences20ServerCertThumbprintE
0000000000123b80 T _ZN15UserPreferences20setDefaultSecondUserERKSs
00000000003bd640 B _ZN15UserPreferences21AnyConnectPreferencesE
0000000000123370 T _ZN15UserPreferences21getDefaultHostAddressEv
00000000003bd650 B _ZN15UserPreferences21HeadendSelectionCacheE
00000000001239b0 T _ZN15UserPreferences21setDefaultHostAddressERKSs
0000000000125a20 T _ZN15UserPreferences23clearPendingPreferencesEv
00000000003bd648 B _ZN15UserPreferences23ControllablePreferencesE
00000000001236b0 T _ZN15UserPreferences23getClientCertThumbprintEv
0000000000123790 T _ZN15UserPreferences23getServerCertThumbprintEv
00000000001235f0 T _ZN15UserPreferences23hasClientCertThumbprintEv
0000000000123730 T _ZN15UserPreferences23hasServerCertThumbprintEv
0000000000123f10 T _ZN15UserPreferences23setClientCertThumbprintERKSs
0000000000123ff0 T _ZN15UserPreferences23setServerCertThumbprintERKSs
0000000000123060 T _ZN15UserPreferences25setControllablePreferenceERKSsS1_RSt3mapISsSsSt4lessISsESaISt4pairIS0_SsEEES1_
0000000000128df0 T _ZN15UserPreferences25storeAutomaticPreferencesEv
0000000000126960 T _ZN15UserPreferences26backupAutomaticPreferencesEv
00000000003bd670 B _ZN15UserPreferences26MultiClientCertThumbprintsE
0000000000123100 T _ZN15UserPreferences27getAutomaticPreferenceValueE16AutoPreferenceId
0000000000124dc0 T _ZN15UserPreferences27setAutomaticPreferenceValueE16AutoPreferenceIdRKSs
0000000000122eb0 T _ZN15UserPreferences27StoreControllablePreferenceEP12SaxWriterIfcP10Preference
0000000000129310 T _ZN15UserPreferences28storeControllablePreferencesEv
0000000000125920 T _ZN15UserPreferences29getMultiClientCertThumbprintsEv
0000000000123650 T _ZN15UserPreferences29hasMultiClientCertThumbprintsEv
00000000001257f0 T _ZN15UserPreferences29setMultiClientCertThumbprintsERKSt4listISsSaISsEE
00000000003bd668 B _ZN15UserPreferences30MultiClientCertThumbprintEntryE
00000000003bd718 B _ZN15UserPreferences9GroupListE
00000000003bd6c0 B _ZN15UserPreferences9ProxyHostE
00000000003bd6b0 B _ZN15UserPreferences9ProxyPortE
0000000000128330 T _ZN15UserPreferencesC1E15PreferenceScopeRKSt6vectorIbSaIbEERKSs
0000000000128330 T _ZN15UserPreferencesC2E15PreferenceScopeRKSt6vectorIbSaIbEERKSs
0000000000127f90 T _ZN15UserPreferencesD0Ev
0000000000127990 T _ZN15UserPreferencesD1Ev
0000000000127990 T _ZN15UserPreferencesD2Ev
                 U _ZN16CExtensibleStatsC1ERl
                 U _ZN16CExtensibleStatsD1Ev
                 U _ZN16CProxyCommonInfo15NextProxyServerERb
                 U _ZN16CProxyCommonInfo15ResetProxyStateEv
                 U _ZN16CProxyCommonInfo19ObtainProxySettingsERKSsNS_16PROXY_PREFERENCEEb
                 U _ZN16CProxyCommonInfo21AddProxyServersToListERKSsb
                 U _ZN16CProxyCommonInfo24ClearCachedProxySettingsEv
                 U _ZN16CStartParameters10SetVpnTypeE19ConnectProtocolType
                 U _ZN16CStartParameters11SetSGCookieEPKc
                 U _ZN16CStartParameters12SetProxyHostERKSs
                 U _ZN16CStartParameters12SetProxyPortERKSs
                 U _ZN16CStartParameters12SetProxyPswdERKSs
                 U _ZN16CStartParameters12SetProxyTypeERKt
                 U _ZN16CStartParameters12SetProxyUserERKSs
                 U _ZN16CStartParameters13SetAuthMethodE16USER_AUTH_METHOD
                 U _ZN16CStartParameters13SetCfgModulesEPKc
                 U _ZN16CStartParameters13SetGUIDesktopEPKc
                 U _ZN16CStartParameters13SetProxyRealmERKSs
                 U _ZN16CStartParameters14SetIkeIdentityERKSs
                 U _ZN16CStartParameters14SetProfileNameERKSs
                 U _ZN16CStartParameters14SetProxyEnPswdEtPKh
                 U _ZN16CStartParameters14SetProxyEnUserEtPKh
                 U _ZN16CStartParameters14SetProxyStringERKSs
                 U _ZN16CStartParameters15SetInitiatorPIDERKi
                 U _ZN16CStartParameters15SetProxyMessageERKSs
                 U _ZN16CStartParameters16SetInvokedByCodeERKSs
                 U _ZN16CStartParameters17SetProxyAuthorityERKSs
                 U _ZN16CStartParameters18SetCertificateInfoERK19CCertificateInfoTlv
                 U _ZN16CStartParameters18SetCfgServerCertTpEPKc
                 U _ZN16CStartParameters18SetPrimarySGIPAddrEPKc
                 U _ZN16CStartParameters19SetProxyEnAuthorityEtPKh
                 U _ZN16CStartParameters20SetSecondarySGIPAddrEPKc
                 U _ZN16CStartParameters21SetSGFriendlyHostNameERKSs
                 U _ZN16CStartParameters25SetAggAuthCertificateInfoERK19CCertificateInfoTlv
                 U _ZN16CStartParameters8SetSGURLEPKc
00000000003bd310 B _ZN16HostInitSettings10TrueStringE
00000000003bd308 B _ZN16HostInitSettings11FalseStringE
00000000000e4790 T _ZN16HostInitSettings12compareValueE12PreferenceIdRKSs
00000000000e7200 T _ZN16HostInitSettings12setAttributeERKSsS1_
00000000000e4b10 T _ZN16HostInitSettings12tstringToIntERKSs
00000000000e65f0 T _ZN16HostInitSettings13setEndElementERKSs
00000000003bd320 B _ZN16HostInitSettings14CertEnrollmentE
00000000000e4540 T _ZN16HostInitSettings15addBackupServerESs
00000000003bd2e0 B _ZN16HostInitSettings15sm_MobilePolicyE
00000000003bd300 B _ZN16HostInitSettings16BackupServerListE
00000000000e6c20 T _ZN16HostInitSettings16releaseResourcesEv
00000000000e6230 T _ZN16HostInitSettings16setActiveElementE12PreferenceId
00000000000e5e40 T _ZN16HostInitSettings16setActiveElementERKSs
00000000003bd2f8 B _ZN16HostInitSettings18AutomaticVpnPolicyE
00000000003bd2f0 B _ZN16HostInitSettings18CertificatePinListE
00000000000e4980 T _ZN16HostInitSettings20isTNDRulesConfiguredEv
00000000000e5dd0 T _ZN16HostInitSettings21setActiveElementValueEb
00000000000e59a0 T _ZN16HostInitSettings21setActiveElementValueERKSs
00000000003bd2b0 B _ZN16HostInitSettings33sm_MobilePolicyPasswordComplexityE
00000000003bd2d0 B _ZN16HostInitSettings36sm_MobilePolicyMaximumTimeoutMinutesE
00000000003bd2c0 B _ZN16HostInitSettings36sm_MobilePolicyMinimumPasswordLengthE
00000000000e6f80 T _ZN16HostInitSettings5ResetEv
00000000003bd330 B _ZN16HostInitSettings9CertMatchE
00000000000e45e0 T _ZN16HostInitSettings9getTNDPRLERKSs
00000000000e4300 T _ZN16HostInitSettings9isEnabledE12PreferenceId
00000000000e43e0 T _ZN16HostInitSettings9isEnabledE12PreferenceId19PreferenceAttribute
00000000000e7730 T _ZN16HostInitSettings9mergeWithERS_
00000000003bd260 B _ZN16HostInitSettings9SecureTNDE
00000000000e95c0 T _ZN16HostInitSettingsC1Ev
00000000000e95c0 T _ZN16HostInitSettingsC2Ev
00000000000e6f40 T _ZN16HostInitSettingsD0Ev
00000000000e6ce0 T _ZN16HostInitSettingsD1Ev
00000000000e6ce0 T _ZN16HostInitSettingsD2Ev
0000000000142c00 T _ZN16XmlAggAuthWriter10addElementERK22XmlHierarchicalElement
0000000000142f20 T _ZN16XmlAggAuthWriter10addVersionERKSsS1_
0000000000143260 T _ZN16XmlAggAuthWriter11addDeviceIdE15AGGAUTH_VERSION
0000000000143820 T _ZN16XmlAggAuthWriter13startDocumentERKSsS1_15AGGAUTH_VERSION
0000000000143ee0 T _ZN16XmlAggAuthWriter15addCapabilitiesE15AGGAUTH_VERSION
00000000003bd880 B _ZN16XmlAggAuthWriter16sm_macAddressMapE
0000000000143430 T _ZN16XmlAggAuthWriter17addMacAddressListE15AGGAUTH_VERSION
00000000003bd8b0 B _ZN16XmlAggAuthWriter18sm_deviceIDAttribsE
0000000000142b90 T _ZN16XmlAggAuthWriter19addChildlessElementERKSsS1_PSt4listISt4pairISsSsESaIS4_EE
00000000001429b0 T _ZN16XmlAggAuthWriterC1Ev
00000000001429b0 T _ZN16XmlAggAuthWriterC2Ev
0000000000142970 T _ZN16XmlAggAuthWriterD0Ev
0000000000142930 T _ZN16XmlAggAuthWriterD1Ev
0000000000142930 T _ZN16XmlAggAuthWriterD2Ev
                 U _ZN16XmlLocalACPolMgr15acquireInstanceEv
                 U _ZN16XmlLocalACPolMgr15releaseInstanceEv
                 U _ZN16XmlLocalACPolMgr18GetLocalPolicyInfoEv
                 U _ZN16XmlLocalACPolMgr25LoadLocalAnyConnectPolicyEv
                 U _ZN16XmlLocalACPolMgrC1Ev
                 U _ZN17CCertSCEPEnroller13ClearDistNameEv
                 U _ZN17CCertSCEPEnroller14GetDistNameDERERSt6vectorIhSaIhEE
                 U _ZN17CCertSCEPEnroller20AddDistNameAttributeERSs
                 U _ZN17CCertSCEPEnrollerC1Ev
                 U _ZN17CCertSCEPEnrollerD1Ev
                 U _ZN17CCustomAttributes29GetPostTunnelCustomAttributesERSt4listISsSaISsEE
                 U _ZN17CCustomAttributesC1ERK22XmlHierarchicalElement
                 U _ZN17CExecutionContext15acquireInstanceENS_11INSTANCE_IDE
                 U _ZN17CExecutionContext15releaseInstanceEv
                 U _ZN17CExecutionContext19GetAcquisitionCountENS_11INSTANCE_IDE
                 U _ZN17CExecutionContext21WaitOnTimersAndEventsEmb
                 U _ZN17CExecutionContext22CreateMultitonInstanceERPS_NS_11INSTANCE_IDE
00000000000b8c80 T _ZN17ConnectPromptInfo11setCanceledEb
00000000000b8f80 T _ZN17ConnectPromptInfo14setTunnelGroupERKSs
00000000000b8d00 T _ZN17ConnectPromptInfo16setResponseErrorE17UserResponseError
00000000000b8f40 T _ZN17ConnectPromptInfo18setUseEnrollmentCAEb
00000000000b8b40 T _ZN17ConnectPromptInfoC1ESs
00000000000b8b40 T _ZN17ConnectPromptInfoC2ESs
00000000000b8b00 T _ZN17ConnectPromptInfoD0Ev
00000000000b8ac0 T _ZN17ConnectPromptInfoD1Ev
00000000000b8ac0 T _ZN17ConnectPromptInfoD2Ev
                 U _ZN17COpenSSLCertUtils19HashEnumToOpenSSLMDE8eHashAlg12eCertKeyType
                 U _ZN17COpenSSLCertUtils21AddRSAPaddingToDigestERSt6vectorIhSaIhEEP11evp_pkey_st8eHashAlg15eRSAPaddingType
                 U _ZN17COpenSSLCertUtils21GetECDSASigFromRawSigERKSt6vectorIhSaIhEERS2_
                 U _ZN17LocalACPolicyInfo5ResetEv
                 U _ZN17LocalACPolicyInfoaSERKS_
                 U _ZN17LocalACPolicyInfoC1Ev
                 U _ZN17LocalACPolicyInfoD1Ev
                 U _ZN18CConnectFailureTlv16GetFailureReasonER22CONNECT_FAILURE_REASON
                 U _ZN18CConnectFailureTlvC1ERlR11CIpcMessage
                 U _ZN18CLinuxProxyUtility14sm_proxySourceE
                 U _ZN18CLinuxProxyUtility26GetLinuxSystemProxyStringsERSsS0_
                 U _ZN18CLinuxProxyUtilityC1Ev
                 U _ZN18CLinuxProxyUtilityD1Ev
                 U _ZN18CSessionCommandTlvC1ERl14IPC_MESSAGE_ID
00000000003bc8a0 D _ZN18GuiCommandLineArgs21sm_guiCommandLineArgsE
0000000000144c00 T _ZN18GuiCommandLineArgs5UsageEv
0000000000144ba0 T _ZN18GuiCommandLineArgsC1Ev
0000000000144ba0 T _ZN18GuiCommandLineArgsC2Ev
0000000000144800 T _ZN18GuiCommandLineArgsD0Ev
0000000000144780 T _ZN18GuiCommandLineArgsD1Ev
0000000000144780 T _ZN18GuiCommandLineArgsD2Ev
00000000003bd1a0 B _ZN18PreferenceInfoBase11EmptyStringE
00000000000c0d60 T _ZN18PreferenceInfoBase13addPreferenceEP10Preference
00000000000c09d0 T _ZN18PreferenceInfoBase14movePreferenceEP10PreferenceRj
00000000000c1520 T _ZN18PreferenceInfoBase16addNewPreferenceERKSsS1_RSt3mapISsSsSt4lessISsESaISt4pairIS0_SsEEES1_
00000000000bf870 T _ZN18PreferenceInfoBase18setPreferencesTypeE15PreferenceScope
00000000000c05b0 T _ZN18PreferenceInfoBase20removeAllPreferencesEv
00000000000bfb20 T _ZN18PreferenceInfoBase20setPreferenceHeadingERKSs
00000000000bfdd0 T _ZN18PreferenceInfoBase25removeAndDeletePreferenceERK12PreferenceIdb
00000000000c1830 T _ZN18PreferenceInfoBase27createDefaultPreferenceInfoEv
00000000000c1210 T _ZN18PreferenceInfoBase8deepCopyERKS_
00000000000c01d0 T _ZN18PreferenceInfoBase9getStringEv
00000000000c0640 T _ZN18PreferenceInfoBaseC1Ev
00000000000c0640 T _ZN18PreferenceInfoBaseC2Ev
00000000000c08b0 T _ZN18PreferenceInfoBaseD0Ev
00000000000c0760 T _ZN18PreferenceInfoBaseD1Ev
00000000000c0760 T _ZN18PreferenceInfoBaseD2Ev
                 U _ZN18XmlHierarchicalMgr10addElementERKSs
                 U _ZN18XmlHierarchicalMgr10endElementERKSs
                 U _ZN18XmlHierarchicalMgr12addAttributeERKSsS1_
                 U _ZN18XmlHierarchicalMgr15setElementValueERKSs
                 U _ZN18XmlHierarchicalMgrC1ERlRKSsbb
                 U _ZN18XmlHierarchicalMgrC2ERlRKSsbb
                 U _ZN18XmlHierarchicalMgrC2Ev
                 U _ZN18XmlHierarchicalMgrD1Ev
                 U _ZN18XmlHierarchicalMgrD2Ev
                 U _ZN19CCertificateInfoTlv12SetCertPKCS7ERKSt6vectorIhSaIhEE
                 U _ZN19CCertificateInfoTlv13SetCertBase64ERKSs
                 U _ZN19CCertificateInfoTlv13SetCertFormatERKSs
                 U _ZN19CCertificateInfoTlv25SetCertStoreMultiCertAuthERKSs
                 U _ZN19CCertificateInfoTlv26SetCertAuthSignatureBase64ERKSs
                 U _ZN19CCertificateInfoTlv27SetCertAuthSignatureHashAlgERKSs
                 U _ZN19CCertificateInfoTlv27SetCertExchangedViaProtocolEb
                 U _ZN19CCertificateInfoTlv5ClearEv
                 U _ZN19CCertificateInfoTlvC1Ev
                 U _ZN19CCertificateInfoTlvD1Ev
                 U _ZN19CHttpHeaderResponse15getResponseCodeEv
                 U _ZN19CHttpHeaderResponse15setResponseCodeESs
                 U _ZN19CHttpHeaderResponse3setERKSs
                 U _ZN19CHttpHeaderResponseC1Ev
                 U _ZN19CHttpHeaderResponseD1Ev
                 U _ZN19CProtocolTranslator19CompressionToStringE15COMPR_ALGORITHM
                 U _ZN19CProtocolTranslator22ProtocolCipherToStringE14ProtocolCipher
                 U _ZN19CProtocolTranslator23ProtocolVersionToStringE15ProtocolVersion
00000000000e57f0 T _ZN19SecureTNDServerList13setEndElementERKSs
00000000000e5720 T _ZN19SecureTNDServerList16setActiveElementERKSs
00000000000e62e0 T _ZN19SecureTNDServerList21getFormattedPrefValueEv
00000000000e5880 T _ZN19SecureTNDServerList21setActiveElementValueERKSs
00000000003bd250 B _ZN19SecureTNDServerList22SecureTNDRuleDelimiterE
00000000000e6970 T _ZN19SecureTNDServerList23getTrustedServerDetailsERKSsRSsRtS2_
00000000000e50d0 T _ZN19SecureTNDServerList24clearTrustedHttpHostListEv
00000000000e5260 T _ZN19SecureTNDServerListaSERKS_
00000000000e54c0 T _ZN19SecureTNDServerListC1ERKS_
00000000000e5080 T _ZN19SecureTNDServerListC1Ev
00000000000e54c0 T _ZN19SecureTNDServerListC2ERKS_
00000000000e5080 T _ZN19SecureTNDServerListC2Ev
00000000000e5550 T _ZN19SecureTNDServerListD1Ev
00000000000e5550 T _ZN19SecureTNDServerListD2Ev
                 U _ZN20CPreferenceUpdateTlv14SetProfileNameERKSs
                 U _ZN20CPreferenceUpdateTlv18setPreferenceCountEj
                 U _ZN20CPreferenceUpdateTlv20addPreferenceSettingE12PreferenceIdRKSs
                 U _ZN20CPreferenceUpdateTlv22setAutoPreferenceCountEj
                 U _ZN20CPreferenceUpdateTlv24addAutoPreferenceSettingE16AutoPreferenceIdRKSs
                 U _ZN20CPreferenceUpdateTlvC1ERlP14IIpcResponseCB
                 U _ZN20CProxyAuthentication13GetServerNameERSs
                 U _ZN20CProxyAuthentication13SetEnPasswordEPKhj
                 U _ZN20CProxyAuthentication14SetEnAuthorityEPKhj
                 U _ZN20CProxyAuthentication14SetEnPrincipalEPKhj
                 U _ZN20CProxyAuthentication15GetErrorMessageERSs
                 U _ZN20CProxyAuthentication15GetSGDomainNameERSs
                 U _ZN20CProxyAuthentication8GetRealmERSs
                 U _ZN20CProxyAuthentication9GetSchemeERSs
                 U _ZN20CProxyAuthenticationC1ERlR11CIpcMessage
                 U _ZN20CProxyAuthenticationC1ERlR16CIpcResponseInfo
                 U _ZN20CPublicProxiesCommon15acquireInstanceEv
                 U _ZN20CPublicProxiesCommon15releaseInstanceEv
                 U _ZN20CPublicProxiesCommonC2ERl
                 U _ZN20CPublicProxiesCommonD2Ev
00000000000a7df0 T _ZN21CertificateEnrollment10GetKeySizeEv
00000000000a7d70 T _ZN21CertificateEnrollment11GetCADomainEv
00000000000a7ef0 T _ZN21CertificateEnrollment11HasSCEPDataEv
00000000003bcf30 B _ZN21CertificateEnrollment12CAThumbprintE
00000000000a8000 T _ZN21CertificateEnrollment12setAttributeERKSsS1_
00000000003bcf60 B _ZN21CertificateEnrollment13AutomaticHostE
00000000000a7db0 T _ZN21CertificateEnrollment13GetDNAttrListEv
00000000000a7fa0 T _ZN21CertificateEnrollment13setEndElementERKSs
00000000003bcf20 B _ZN21CertificateEnrollment15CertImportStoreE
00000000003bcf70 B _ZN21CertificateEnrollment15ExpiryThresholdE
00000000000a7d30 T _ZN21CertificateEnrollment15GetCAThumbprintEv
00000000000a7f30 T _ZN21CertificateEnrollment16setActiveElementERKSs
00000000003bced0 B _ZN21CertificateEnrollment17CertAccessControlE
00000000003bcf18 B _ZN21CertificateEnrollment20CertImportStoreLinuxE
00000000003bcee0 B _ZN21CertificateEnrollment20DisplayGetCertButtonE
00000000000a7c70 T _ZN21CertificateEnrollment20GetAutomaticSCEPHostEv
00000000000a7e70 T _ZN21CertificateEnrollment20GetCertAccessControlEv
00000000003bcf40 B _ZN21CertificateEnrollment20PromptForChallengePWE
00000000000a8460 T _ZN21CertificateEnrollment21setActiveElementValueERKSs
00000000000a7eb0 T _ZN21CertificateEnrollment22GetExpirationThresholdEv
00000000000a7e30 T _ZN21CertificateEnrollment23GetDisplayGetCertButtonEv
00000000000a7cf0 T _ZN21CertificateEnrollment23GetPromptForChallengePWEv
00000000003bcf50 B _ZN21CertificateEnrollment5CAURLE
00000000003bcef0 B _ZN21CertificateEnrollment7KeySizeE
00000000003bcf00 B _ZN21CertificateEnrollment8CADomainE
00000000003bcf10 B _ZN21CertificateEnrollment8CertSCEPE
00000000000a7cb0 T _ZN21CertificateEnrollment8GetCAURLEv
00000000000a92a0 T _ZN21CertificateEnrollmentC1Ev
00000000000a92a0 T _ZN21CertificateEnrollmentC2Ev
00000000000a8180 T _ZN21CertificateEnrollmentD1Ev
00000000000a8180 T _ZN21CertificateEnrollmentD2Ev
                 U _ZN21CEventNotificationTlv12GetEventCodeERNS_10EVENT_CODEE
                 U _ZN21CEventNotificationTlv22GetSystemRestartReasonERNS_21SYSTEM_RESTART_REASONE
                 U _ZN21CEventNotificationTlvC1ERlR11CIpcMessage
00000000000b91a0 T _ZN21ConnectPromptInfoBase10setMessageERKSs
00000000000b9550 T _ZN21ConnectPromptInfoBase11setCanceledEb
00000000000b9710 T _ZN21ConnectPromptInfoBase13setAutoSubmitEb
00000000000b9270 T _ZN21ConnectPromptInfoBase14addPromptEntryEP11PromptEntry
00000000000ba190 T _ZN21ConnectPromptInfoBase14setTunnelGroupERKSs
00000000000b9690 T _ZN21ConnectPromptInfoBase15setAgentRequestEb
00000000000b95d0 T _ZN21ConnectPromptInfoBase16setResponseErrorE17UserResponseError
00000000000b93e0 T _ZN21ConnectPromptInfoBase17clearPasswordDataEv
00000000000b92e0 T _ZN21ConnectPromptInfoBase17insertPromptEntryEP11PromptEntry
00000000000b9610 T _ZN21ConnectPromptInfoBase18setHasEnrollmentCAEb
00000000000b9d50 T _ZN21ConnectPromptInfoBase18setUseEnrollmentCAEb
00000000000b9450 T _ZN21ConnectPromptInfoBase19setSubmitButtonNameERKSs
00000000000b94d0 T _ZN21ConnectPromptInfoBase20setConnectPromptTypeE17ConnectPromptType
00000000000b9230 T _ZN21ConnectPromptInfoBase22setAuthenticationErrorEi
00000000000ba650 T _ZN21ConnectPromptInfoBase25getFirstPromptEntryOfTypeE10PromptType
00000000000b9350 T _ZN21ConnectPromptInfoBase25removeMatchingPromptEntryE10PromptType
00000000000b9810 T _ZN21ConnectPromptInfoBase29setAuthenticationErrorMessageERKSs
00000000000b9d90 T _ZN21ConnectPromptInfoBase5resetEv
00000000000ba9b0 T _ZN21ConnectPromptInfoBaseaSERKS_
00000000000bace0 T _ZN21ConnectPromptInfoBaseC1ERKS_
00000000000b9040 T _ZN21ConnectPromptInfoBaseC1ESs
00000000000bace0 T _ZN21ConnectPromptInfoBaseC2ERKS_
00000000000b9040 T _ZN21ConnectPromptInfoBaseC2ESs
00000000000ba110 T _ZN21ConnectPromptInfoBaseD0Ev
00000000000b9f20 T _ZN21ConnectPromptInfoBaseD1Ev
00000000000b9f20 T _ZN21ConnectPromptInfoBaseD2Ev
                 U _ZN21UserAuthenticationTlv13IsTypeAggAuthEv
                 U _ZN21UserAuthenticationTlv16IsTypeServerCertEv
                 U _ZN21UserAuthenticationTlv17GetAggAuthRequestERSs
                 U _ZN21UserAuthenticationTlv17IsTypeCertSigningEv
                 U _ZN21UserAuthenticationTlv18IsTypeAuthCompleteEv
                 U _ZN21UserAuthenticationTlv18SetAggAuthResponseERKSsbbb
                 U _ZN21UserAuthenticationTlv20GetServerCertRequestERSsRSt6vectorIhSaIhEE
                 U _ZN21UserAuthenticationTlv20IsTypeCertThumbprintEv
                 U _ZN21UserAuthenticationTlv20IsTypeEapCredentialsEv
                 U _ZN21UserAuthenticationTlv21GetCertSigningRequestERSsRjRSt6vectorIhSaIhEES1_
                 U _ZN21UserAuthenticationTlv21SetServerCertResponseEl
                 U _ZN21UserAuthenticationTlv22GetAuthCompleteRequestERSsS0_
                 U _ZN21UserAuthenticationTlv22GetAuthCompleteRequestERSsS0_RSt6vectorIhSaIhEES0_S0_S0_S0_S0_
                 U _ZN21UserAuthenticationTlv22SetCertSigningResponseERKSt6vectorIhSaIhEERK19CCertificateInfoTlv
                 U _ZN21UserAuthenticationTlv23SetAuthCompleteResponseEl
                 U _ZN21UserAuthenticationTlv24GetEapCredentialsRequestERSsS0_S0_S0_
                 U _ZN21UserAuthenticationTlv25SetCertThumbprintResponseERK19CCertificateInfoTlv
                 U _ZN21UserAuthenticationTlv25SetEapCredentialsResponseERKSsS1_
                 U _ZN21UserAuthenticationTlv27IsTypeAggAuthCertThumbprintEv
                 U _ZN21UserAuthenticationTlv29SetCertSigningFailureResponseEl
                 U _ZN21UserAuthenticationTlv32SetAggAuthCertThumbprintResponseERK19CCertificateInfoTlv
                 U _ZN21UserAuthenticationTlv32SetCertThumbprintFailureResponseEl
                 U _ZN21UserAuthenticationTlv39SetAggAuthCertThumbprintFailureResponseEl
                 U _ZN21UserAuthenticationTlvC1ERlR11CIpcMessagePFlRP10IDataCryptE
                 U _ZN21UserAuthenticationTlvC1ERlR16CIpcResponseInfoPFlRP10IDataCryptE
                 U _ZN21UserAuthenticationTlvD1Ev
                 U _ZN22CInstalledManifestInfo34IsInstalledVersionPhoenixOrEarlierEv
                 U _ZN22CInstalledManifestInfoC1E17eManifestDataPath
                 U _ZN22XmlHierarchicalElement15addChildElementEPS_
                 U _ZN22XmlHierarchicalElement15setElementValueERKSs
                 U _ZN22XmlHierarchicalElement19deleteChildElementsERKSt4listISsSaISsEE
                 U _ZN22XmlHierarchicalElement5ClearEv
                 U _ZN22XmlHierarchicalElement9addNVPairERKSsS1_
                 U _ZN22XmlHierarchicalElementaSERKS_
                 U _ZN22XmlHierarchicalElementC1ERKSs
                 U _ZN22XmlHierarchicalElementD1Ev
                 U _ZN24CNotifyAgentPreTunnelTlv14SetHostAddressERKSs
                 U _ZN24CNotifyAgentPreTunnelTlv14SetProfileNameERKSs
                 U _ZN24CNotifyAgentPreTunnelTlv14SetProxyBypassERKSs
                 U _ZN24CNotifyAgentPreTunnelTlv15SetHostProtocolERKSs
                 U _ZN24CNotifyAgentPreTunnelTlv15SetUIProcessPIDEi
                 U _ZN24CNotifyAgentPreTunnelTlv17SetDetermineProxyEb
                 U _ZN24CNotifyAgentPreTunnelTlv17SetVpnTunnelScopeE16VPN_TUNNEL_SCOPE
                 U _ZN24CNotifyAgentPreTunnelTlv18SetEncodedSSOTokenERKSs
                 U _ZN24CNotifyAgentPreTunnelTlv19SetProxyServersListERKSs
                 U _ZN24CNotifyAgentPreTunnelTlv19SetProxySettingTypeERKSs
                 U _ZN24CNotifyAgentPreTunnelTlvC1ERl14IPC_MESSAGE_ID
                 U _ZN24CNotifyAgentPreTunnelTlvC1ERl14IPC_MESSAGE_IDP14IIpcResponseCB
                 U _ZN24CNotifyAgentPreTunnelTlvC1ERlR11CIpcMessage14IPC_MESSAGE_ID
                 U _ZN24CSingletonObfuscationMgr12SetPublicKeyEPKhj
                 U _ZN24CSingletonObfuscationMgr14GetEncrKeyDataEPhRjj
                 U _ZN24CSingletonObfuscationMgr15acquireInstanceEv
                 U _ZN24CSingletonObfuscationMgr15releaseInstanceEv
                 U _ZN24CSingletonObfuscationMgr20GenerateSymmetricKeyERj
                 U _ZN24CSingletonObfuscationMgr23createSingletonInstanceERPS_PKhjb
                 U _ZN30CVerifyFileSignatureCollective7IsValidEPKcS1_mS1_S1_
                 U _ZN30CVerifyFileSignatureCollectiveC1Ev
                 U _ZN30CVerifyFileSignatureCollectiveD1Ev
                 U _ZN3URL11setLocationERKSs
                 U _ZN3URL19sm_ptstrDefaultPortE
                 U _ZN3URL5clearEv
                 U _ZN3URL6setURLERKSs
                 U _ZN3URLaSERKS_
                 U _ZN3URLaSERKSs
                 U _ZN3URLC1ERlRKSs
                 U _ZN3URLC1Ev
                 U _ZN4CTLV12AddAttributeEttPKh
                 U _ZN5CHash7GetHashERSs
                 U _ZN5CHash8HashFileERKSsRSs
                 U _ZN6CTimer10StartTimerEm
                 U _ZN6CTimer9StopTimerEv
                 U _ZN6CTimerC1ERlP10CTimerListP8ITimerCBPvm
                 U _ZN6CTimerC1ERlP10CTimerListPFvPvmES3_m
                 U _ZN6CTimerD1Ev
000000000013cb90 T _ZN7AggAuth10processXMLERKSsR13XmlAggAuthMgrb
000000000013e8e0 T _ZN7AggAuth12CreateAckXMLEv
0000000000139470 T _ZN7AggAuth12saveAuthPartERK22XmlHierarchicalElement
000000000013d800 T _ZN7AggAuth13CreateInitXMLE15AGGAUTH_VERSION
000000000013dd40 T _ZN7AggAuth13CreateInitXMLESs
0000000000138e60 T _ZN7AggAuth14saveConfigPartERK22XmlHierarchicalElementb
000000000013de80 T _ZN7AggAuth15CreateLogoutXMLERKSs
0000000000138b30 T _ZN7AggAuth15saveOpaqueForSGERK22XmlHierarchicalElement
000000000013fc50 T _ZN7AggAuth17CreateAuthPollXMLERKSsS1_S1_RKSt4listISt4pairISsSsESaIS4_EE
000000000013ea90 T _ZN7AggAuth17CreateCertFailXMLEv
0000000000139910 T _ZN7AggAuth17SetAggAuthVersionE15AGGAUTH_VERSION
0000000000139990 T _ZN7AggAuth17verifyCredentialsERKSt4listISt4pairISsSsESaIS2_EE
000000000013bdd0 T _ZN7AggAuth18addClientCertChainER16XmlAggAuthWriterRKSt4listIP19CCertificateInfoTlvSaIS4_EE
0000000000139680 T _ZN7AggAuth18addSoftwareVersionERKSsS1_
000000000013f200 T _ZN7AggAuth18CreateAuthReplyXMLERSt4listISt4pairISsSsESaIS2_EERSsPKS0_IP19CCertificateInfoTlvSaIS8_EE
000000000013d510 T _ZN7AggAuth19SetACIdexParametersERKSt4listISt4pairISsSsESaIS2_EERKSt3mapISsbSt4lessISsESaIS1_IKSsbEEE
00000000001398c0 T _ZN7AggAuth20SetInitXMLParametersERKSsS1_
000000000013e500 T _ZN7AggAuth22CreateConfigRequestXMLERKSsS1_
000000000013ddc0 T _ZN7AggAuth38CreateInitXMLusingCachedAggAuthVersionEv
000000000013b030 T _ZN7AggAuth4MaskERKSs
0000000000138a80 T _ZN7AggAuth5ClearEv
000000000013b790 T _ZN7AggAuthC1Ev
000000000013b790 T _ZN7AggAuthC2Ev
000000000013bd90 T _ZN7AggAuthD0Ev
000000000013ba40 T _ZN7AggAuthD1Ev
000000000013ba40 T _ZN7AggAuthD2Ev
                 U _ZN7CAppLog10LogMessageEN7Logging9MessageIDEz
                 U _ZN7CAppLog13LogReturnCodeEPKcS1_jN7Logging15DebugImportanceES1_jS1_S1_z
                 U _ZN7CAppLog15LogDebugMessageEPKcS1_jN7Logging15DebugImportanceES1_z
                 U _ZN7CAppLog17LogVerboseMessageEPKcS1_jN7Logging15DebugImportanceE18CUST_LOG_COMPONENT14CUST_LOG_LEVELS1_z
                 U _ZN7CAppLog20LogAggVerboseMessageEPKcS1_jN7Logging15DebugImportanceERKSt6vectorI18CUST_LOG_COMPONENTSaIS5_EE14CUST_LOG_LEVELS1_z
                 U _ZN7CAppLogC1ERlPKcP7ILogger
                 U _ZN7CAppLogD1Ev
                 U _ZN7CCEvent10ResetEventEv
                 U _ZN7CCEvent8SetEventEb
                 U _ZN7CCEvent9WaitEventEjbb
                 U _ZN7CCEventC1ERliNS_17EVENT_HANDLE_TYPEEPKc
                 U _ZN7CCEventC1ERlP10CEventListNS_10EVENT_TYPEEPFvPviES4_miNS_17EVENT_HANDLE_TYPEEPKc
00000000000b6c30 T _ZN7CertObj10setCertPinESs
00000000000b69d0 T _ZN7CertObj12getStoreTextEv
00000000000b6cb0 T _ZN7CertObj12GetStoreTypeEv
00000000000b6d10 T _ZN7CertObj15HashAndSignDataERKSt6vectorIhSaIhEERS2_8eHashAlg
00000000000b6640 T _ZN7CertObj15isSmartCardCertERb
00000000000b6430 T _ZN7CertObj17getCertThumbprintEv
00000000000b7560 T _ZN7CertObj18GetCertificateInfoER19CCertificateInfoTlvb
00000000000b78f0 T _ZN7CertObj18GetCertificateInfoER19CCertificateInfoTlvRKSsS3_S3_b
00000000000b67d0 T _ZN7CertObj18isCertificateValidEv
00000000000b6550 T _ZN7CertObj19getCertificateErrorEv
00000000000b66e0 T _ZN7CertObj19getDaysUntilExpiredEv
00000000000b7020 T _ZN7CertObj21getCertHelperInstanceEv
00000000000b64e0 T _ZN7CertObj21getCertificateContextEv
00000000000b6a20 T _ZN7CertObj8toStringEv
00000000000b63c0 T _ZN7CertObjC1EP12CCertificate8CertTypeb
00000000000b7420 T _ZN7CertObjC1EPhjRSsS1_j
00000000000b72f0 T _ZN7CertObjC1ESs8CertTypeb
00000000000b63c0 T _ZN7CertObjC2EP12CCertificate8CertTypeb
00000000000b7420 T _ZN7CertObjC2EPhjRSsS1_j
00000000000b72f0 T _ZN7CertObjC2ESs8CertTypeb
00000000000b6380 T _ZN7CertObjD0Ev
00000000000b6200 T _ZN7CertObjD1Ev
00000000000b6200 T _ZN7CertObjD2Ev
                 U _ZN7CIPAddr11sm_zeroAddrE
                 U _ZN7CIPAddr12getIPAddrStrEv
                 U _ZN7CIPAddr12setIPAddressEPKc
                 U _ZN7CIPAddr13IsIPv4AddressEPKc
                 U _ZN7CIPAddr13IsIPv6AddressEPKc
                 U _ZN7CIPAddr16setDefaultValuesEv
                 U _ZN7CIPAddr17freeAddressStringEv
                 U _ZN7CIPAddraSERKS_
                 U _ZN7CIPAddrC1ERKS_
                 U _ZN7CIPAddrC1ERlPKc
                 U _ZN7CIPAddrC1ERlPKvj
                 U _ZN7CIPCTLV12AddAttributeEtt
                 U _ZN7CIPCTLV13getIpcMessageERP11CIpcMessage
                 U _ZN7CIPCTLVC2ERl14IPC_MESSAGE_ID16IPC_MESSAGE_TYPEP14IIpcResponseCBPFlRP10IDataCryptE
                 U _ZN7CIPCTLVC2ERlRK11CIpcMessagePFlRP10IDataCryptE
                 U _ZN7CIPCTLVD2Ev
                 U _ZN7CThread17WaitForCompletionERjj
                 U _ZN7CThread18GetCurrentThreadIDEv
                 U _ZN7CThread5StartEv
                 U _ZN7CThreadC2Ej
                 U _ZN7CThreadD2Ev
                 U _ZN7lBase646EncodeERSiRSoi
0000000000162270 T _ZN7SCEPIfc10importCertERKSt6vectorIhSaIhEERSsS5_
0000000000162500 T _ZN7SCEPIfc12getMachineIDEv
0000000000165450 T _ZN7SCEPIfc13displayStatusEt
00000000003bd9b0 B _ZN7SCEPIfc14CertStorePWTagE
00000000003bd9c0 B _ZN7SCEPIfc14ChallengePWTagE
0000000000161ee0 T _ZN7SCEPIfc17prepareCertImportEv
0000000000163d90 T _ZN7SCEPIfc17ProcessImportCertEb
0000000000165da0 T _ZN7SCEPIfc17ProcessIpcMessageEP11CIpcMessage
0000000000163050 T _ZN7SCEPIfc17promptUserForInfoEv
0000000000164190 T _ZN7SCEPIfc18prepareCertRequestEv
0000000000162680 T _ZN7SCEPIfc20obtainEnrollmentDataERSsS0_
0000000000161f40 T _ZN7SCEPIfc21handleAgentImportCertER7SCEPTlv
0000000000165c70 T _ZN7SCEPIfc22NotifyEnrollmentResultEv
0000000000162da0 T _ZN7SCEPIfc23handleDeleteCertificateER7SCEPTlv
0000000000161a00 T _ZN7SCEPIfc23sendSCEPResponseToAgentER7SCEPTlv
0000000000162620 T _ZN7SCEPIfc23validateProfileSCEPDataEv
0000000000165cf0 T _ZN7SCEPIfc24handleAgentDisplayStatusER7SCEPTlv
00000000001617d0 T _ZN7SCEPIfc24InformAgentLegacyRequestERSs
0000000000162220 T _ZN7SCEPIfc25mapStatusToNotificationIDEl
00000000001648b0 T _ZN7SCEPIfc25ProcessSCEPInfoFromPromptER17ConnectPromptInfo
0000000000164cb0 T _ZN7SCEPIfc26handleAgentCertInfoRequestER7SCEPTlv
0000000000161df0 T _ZN7SCEPIfc29sendImportCertResponseToAgentEl
0000000000161b50 T _ZN7SCEPIfc34sendCertInfoRequestResponseToAgentEl
0000000000161270 T _ZN7SCEPIfcC1ER13ClientIfcBaseR8AgentIfc
0000000000161270 T _ZN7SCEPIfcC2ER13ClientIfcBaseR8AgentIfc
0000000000161470 T _ZN7SCEPIfcD1Ev
0000000000161470 T _ZN7SCEPIfcD2Ev
                 U _ZN7SCEPTlv10GetP12DataERSt6vectorIhSaIhEE
                 U _ZN7SCEPTlv11SetDistNameERKSt6vectorIhSaIhEE
                 U _ZN7SCEPTlv13SetCertExpiryEl
                 U _ZN7SCEPTlv14GetMessageTypeER13SCEP_TLV_TYPE
                 U _ZN7SCEPTlv14GetProfileNameERSs
                 U _ZN7SCEPTlv14SetMessageTypeE13SCEP_TLV_TYPE
                 U _ZN7SCEPTlv16SetMessageStatusEl
                 U _ZN7SCEPTlv17GetCertThumbprintERSs
                 U _ZN7SCEPTlv17GetNotificationIDER22SCEP_NOTIFICATION_TYPE
                 U _ZN7SCEPTlv18GetInfoRequestTypeER22SCEP_INFO_REQUEST_TYPE
                 U _ZN7SCEPTlv20GetCertAccessControlERi
                 U _ZN7SCEPTlv9GetSGHostERSs
                 U _ZN7SCEPTlv9SetCAPassERKSs
                 U _ZN7SCEPTlvC1ERl14IPC_MESSAGE_IDR16CIpcResponseInfo
                 U _ZN7SCEPTlvC1ERlR11CIpcMessage14IPC_MESSAGE_ID
                 U _ZN7VersionC1ERKSsS1_
                 U _ZN8CTimeVal9TimeStampEv
                 U _ZN8CTimeValmIERKS_
                 U _ZN8CTimeValpLERKS_
00000000003bd730 B _ZN8ProxyIfc10RealmLabelE
00000000003bd790 B _ZN8ProxyIfc11ContinueTagE
00000000003bd788 B _ZN8ProxyIfc11HostDataTagE
00000000003bd760 B _ZN8ProxyIfc12AuthorityTagE
000000000012c5f0 T _ZN8ProxyIfc12createCryptoEv
000000000012b810 T _ZN8ProxyIfc12getDecryptedERKSt6vectorIhSaIhEERNS_21UnprotectedCredentialE
000000000012ba20 T _ZN8ProxyIfc12getProxyPswdEv
000000000012b960 T _ZN8ProxyIfc12getProxyUserEv
000000000012cc60 T _ZN8ProxyIfc12setEncryptedERKSsRSt6vectorIhSaIhEE
000000000012ce60 T _ZN8ProxyIfc12setProxyPswdERKSs
000000000012cdc0 T _ZN8ProxyIfc12setProxyUserERKSs
00000000003bd738 B _ZN8ProxyIfc14AuthorityLabelE
000000000012b6a0 T _ZN8ProxyIfc16getProxyHostDataEv
000000000012bae0 T _ZN8ProxyIfc17getProxyAuthorityEv
000000000012cf00 T _ZN8ProxyIfc17setProxyAuthorityERKSs
000000000012e7b0 T _ZN8ProxyIfc18configureNtlmProxyER17ConnectPromptInfo
000000000012d6c0 T _ZN8ProxyIfc19configureBasicProxyER17ConnectPromptInfo
000000000012ece0 T _ZN8ProxyIfc20setConnectPromptInfoER17ConnectPromptInfo
000000000012d440 T _ZN8ProxyIfc21getEncryptedProxyPswdEv
000000000012d300 T _ZN8ProxyIfc21getEncryptedProxyUserEv
000000000012c820 T _ZN8ProxyIfc21getProxyQualifiedUserEv
000000000012bba0 T _ZN8ProxyIfc22transferToDnldrArgsTlvER13CDnldrArgsTlv
000000000012f1e0 T _ZN8ProxyIfc23transferFromStartParamsERK16CStartParameters
000000000012eff0 T _ZN8ProxyIfc25getUnencryptedProxyStringEjPKhRSs
000000000012d580 T _ZN8ProxyIfc26getEncryptedProxyAuthorityEv
000000000012cfa0 T _ZN8ProxyIfc29transferFromConnectPromptInfoER17ConnectPromptInfo
00000000003bd770 B _ZN8ProxyIfc7PswdTagE
00000000003bd780 B _ZN8ProxyIfc7UserTagE
00000000003bd758 B _ZN8ProxyIfc8RealmTagE
00000000003bd740 B _ZN8ProxyIfc9PswdLabelE
00000000003bd750 B _ZN8ProxyIfc9UserLabelE
000000000012ca30 T _ZN8ProxyIfcaSERKS_
000000000012c6d0 T _ZN8ProxyIfcC1E9ProxyTypeb
000000000012cb20 T _ZN8ProxyIfcC1ERKS_
000000000012c6d0 T _ZN8ProxyIfcC2E9ProxyTypeb
000000000012cb20 T _ZN8ProxyIfcC2ERKS_
000000000012b660 T _ZN8ProxyIfcD0Ev
000000000012b4c0 T _ZN8ProxyIfcD1Ev
000000000012b4c0 T _ZN8ProxyIfcD2Ev
00000000003bd408 B _ZN8VPNStats10DAPMessageE
00000000003bd528 B _ZN8VPNStats11PacketsSentE
00000000003bd3e8 B _ZN8VPNStats11ProfileNameE
00000000003bd430 B _ZN8VPNStats11UnconfirmedE
00000000003bd418 B _ZN8VPNStats12AlwaysOnModeE
0000000000109a50 T _ZN8VPNStats12getStatValueERSs
00000000003bd3d8 B _ZN8VPNStats12MgmtTunStateE
00000000003bd478 B _ZN8VPNStats12ProxyAddressE
00000000003bd530 B _ZN8VPNStats13BytesReceivedE
00000000003bd498 B _ZN8VPNStats13ClientAddressE
00000000003bd410 B _ZN8VPNStats13NetworkStatusE
00000000003bd470 B _ZN8VPNStats13ProxyHostNameE
00000000003bd490 B _ZN8VPNStats13ServerAddressE
00000000003bd540 B _ZN8VPNStats13TimeConnectedE
00000000003bd460 B _ZN8VPNStats13TunnelingModeE
00000000003bd480 B _ZN8VPNStats14ServerHostNameE
00000000003bd488 B _ZN8VPNStats15ClientAddressV6E
0000000000109b50 T _ZN8VPNStats15getFirewallInfoEv
0000000000109b10 T _ZN8VPNStats15getProtocolInfoEv
0000000000109a90 T _ZN8VPNStats15getSecureRoutesEv
00000000003bd4a8 B _ZN8VPNStats15InboundBypassedE
00000000003bd520 B _ZN8VPNStats15PacketsReceivedE
00000000003bd458 B _ZN8VPNStats15TunnelingModeV6E
00000000003bd518 B _ZN8VPNStats16ControlBytesSentE
00000000003bd4b8 B _ZN8VPNStats16InboundDiscardedE
00000000003bd4a0 B _ZN8VPNStats16OutboundBypassedE
00000000003bd4b0 B _ZN8VPNStats17OutboundDiscardedE
00000000003bd3e0 B _ZN8VPNStats17SessionDisconnectE
00000000003bd508 B _ZN8VPNStats18ControlPacketsSentE
00000000003bd4f8 B _ZN8VPNStats18EncryptedBytesSentE
0000000000109ad0 T _ZN8VPNStats18getNonsecureRoutesEv
0000000000109970 T _ZN8VPNStats18getTranslatedLabelERSs
00000000003bd4d8 B _ZN8VPNStats19CompressedBytesSentE
00000000003bd3f0 B _ZN8VPNStats20AdministrativeDomainE
00000000003bd510 B _ZN8VPNStats20ControlBytesReceivedE
00000000003bd4e8 B _ZN8VPNStats20EncryptedPacketsSentE
00000000003bd4c8 B _ZN8VPNStats21CompressedPacketsSentE
00000000003bd500 B _ZN8VPNStats22ControlPacketsReceivedE
00000000003bd450 B _ZN8VPNStats22DynamicTunnelExclusionE
00000000003bd448 B _ZN8VPNStats22DynamicTunnelInclusionE
00000000003bd4f0 B _ZN8VPNStats22EncryptedBytesReceivedE
00000000003bd4d0 B _ZN8VPNStats23CompressedBytesReceivedE
00000000003bd4e0 B _ZN8VPNStats24EncryptedPacketsReceivedE
00000000003bd4c0 B _ZN8VPNStats25CompressedPacketsReceivedE
00000000003bd420 B _ZN8VPNStats27TrustedNetworkDetectionModeE
00000000003bd548 B _ZN8VPNStats5StateE
00000000003bd440 B _ZN8VPNStats7EnabledE
00000000003bd400 B _ZN8VPNStats7MUSHostE
00000000003bd438 B _ZN8VPNStats8DisabledE
00000000003bd428 B _ZN8VPNStats8FipsModeE
00000000003bd538 B _ZN8VPNStats9BytesSentE
00000000003bd3f8 B _ZN8VPNStats9MUSStatusE
00000000003bd468 B _ZN8VPNStats9ProxyPortE
0000000000109920 T _ZN8VPNStatsC1Ev
0000000000109920 T _ZN8VPNStatsC2Ev
00000000001098e0 T _ZN8VPNStatsD0Ev
00000000001098a0 T _ZN8VPNStatsD1Ev
00000000001098a0 T _ZN8VPNStatsD2Ev
                 U _ZN9CIPv6Util28IsIPv6VpnConnectionSupportedEv
00000000000c9800 T _ZN9ClientIfc10disconnectEv
00000000000c99c0 T _ZN9ClientIfc10resetStatsEv
00000000000ca600 T _ZN9ClientIfc10startStatsEv
00000000000ca0c0 T _ZN9ClientIfc10UserSubmitEv
00000000000cb8a0 T _ZN9ClientIfc11exportStatsERKSs
00000000000cba60 T _ZN9ClientIfc11isAvailableEv
00000000000cbf80 T _ZN9ClientIfc11isConnectedEb
00000000000cc2e0 T _ZN9ClientIfc12getHostNamesEv
00000000000ca7c0 T _ZN9ClientIfc13ProcessEventsEv
00000000000cb370 T _ZN9ClientIfc14getConnectHostEv
00000000000cd120 T _ZN9ClientIfc14getPreferencesEv
00000000000cacd0 T _ZN9ClientIfc15getLastVpnErrorEv
00000000000cc130 T _ZN9ClientIfc15isOperatingModeE13OperatingMode
00000000000cca80 T _ZN9ClientIfc15savePreferencesERKSt10shared_ptrI14PreferenceInfoE
00000000000cb6e0 T _ZN9ClientIfc15setLastVpnErrorE8VPNError
00000000000cb010 T _ZN9ClientIfc17setBannerResponseEb
00000000000cbdd0 T _ZN9ClientIfc17setNewTunnelGroupERKSs
00000000000cab20 T _ZN9ClientIfc18getDefaultHostNameEv
00000000000cc490 T _ZN9ClientIfc19getPreferencesCountEv
00000000000cb1d0 T _ZN9ClientIfc19hasFullCapabilitiesEv
00000000000ca980 T _ZN9ClientIfc21isVPNServiceAvailableEv
00000000000cae70 T _ZN9ClientIfc22isConnectRequestActiveEv
00000000000cb520 T _ZN9ClientIfc22setCertBlockedResponseEb
00000000000cbc00 T _ZN9ClientIfc22setCertWarningResponseEbb
00000000000cea60 T _ZN9ClientIfc27EventNotificationInternalCBERKSt10shared_ptrI21CEventNotificationTlvE
00000000000ca440 T _ZN9ClientIfc29setPreConnectReminderResponseEv
00000000000ccc70 T _ZN9ClientIfc6attachE10ClientTypebb
00000000000c9d40 T _ZN9ClientIfc6cancelEv
00000000000cce80 T _ZN9ClientIfc6detachEv
00000000000cc630 T _ZN9ClientIfc7connectESs
00000000000cc850 T _ZN9ClientIfc7connectESsj
00000000000ca280 T _ZN9ClientIfc8getStateEv
00000000000c9b80 T _ZN9ClientIfc8getStatsEv
00000000000c9f00 T _ZN9ClientIfc9stopStatsEv
00000000000cf780 T _ZN9ClientIfcC1Ev
00000000000cf780 T _ZN9ClientIfcC2Ev
00000000000cd0e0 T _ZN9ClientIfcD0Ev
00000000000cd060 T _ZN9ClientIfcD1Ev
00000000000cd060 T _ZN9ClientIfcD2Ev
                 U _ZN9CLocalLANC1ERlR11CIpcMessage
                 U _ZN9CLocalLANC1ERlR16CIpcResponseInfo
                 U _ZN9CStateTlv10getNetTypeER12NETWORK_TYPE
                 U _ZN9CStateTlv12GetMUSStatusER10MUS_STATUS
                 U _ZN9CStateTlv14GetMUSHostAddrERSs
                 U _ZN9CStateTlv14getNetEnvStateER12NETENV_STATE
                 U _ZN9CStateTlv14getTunnelCountERj
                 U _ZN9CStateTlv14getTunnelStateEjR5STATE
                 U _ZN9CStateTlv15getNetCtrlStateER13NETCTRL_STATE
                 U _ZN9CStateTlv15getSessionStateER5STATE
                 U _ZN9CStateTlv18getSessionSubStateER15VPNCON_SUBSTATE
                 U _ZN9CStateTlv20getActiveTunnelIndexERj
                 U _ZN9CStateTlv23getAggregateTunnelStateER5STATE
                 U _ZN9CStateTlv23getTunnelComprAlgorithmEjR15COMPR_ALGORITHM
                 U _ZN9CStateTlv23getTunnelProtocolCipherEjR14ProtocolCipher
                 U _ZN9CStateTlv24getTunnelProtocolVersionEjR15ProtocolVersion
                 U _ZN9CStateTlvC1ERlP14IIpcResponseCB
                 U _ZN9CStateTlvC1ERlR11CIpcMessage
00000000000aac70 T _ZN9HostEntry11getCertHashEv
00000000000aab90 T _ZN9HostEntry12getUserGroupEv
00000000000aad90 T _ZN9HostEntry14getIKEIdentityEv
00000000000aabe0 T _ZN9HostEntry14getProfileNameEv
00000000000aac30 T _ZN9HostEntry15getCertAuthModeEv
00000000000aad10 T _ZN9HostEntry16isActiveOnImportEv
00000000000aacc0 T _ZN9HostEntry17getCertCommonNameEv
00000000000aade0 T _ZN9HostEntry18getIPsecAuthMethodEv
00000000000aad50 T _ZN9HostEntry21getConnectionProtocolEv
00000000000aab40 T _ZN9HostEntry7getHostEv
00000000000aaaf0 T _ZN9HostEntry7getNameEv
00000000000aa930 T _ZN9HostEntryC1ERKSsS1_S1_S1_RK12CertAuthModeS1_S1_RKbRK19ConnectProtocolTypeRK16USER_AUTH_METHODS1_
00000000000aa930 T _ZN9HostEntryC2ERKSsS1_S1_S1_RK12CertAuthModeS1_S1_RKbRK19ConnectProtocolTypeRK16USER_AUTH_METHODS1_
                 U _ZN9HttpProbe13SendHttpProbeERKSsbbtS1_jRK10PROXY_DATAjRNS_18HTTP_PROBE_RESULTSE
00000000001196e0 T _ZN9RouteInfo11HashCombineERKSt4listIPS_SaIS1_EE
0000000000118c90 T _ZN9RouteInfoC1EPKS_
0000000000118d80 T _ZN9RouteInfoC1ERSsS0_
0000000000118e50 T _ZN9RouteInfoC1ERSsS0_S0_
0000000000118c90 T _ZN9RouteInfoC2EPKS_
0000000000118d80 T _ZN9RouteInfoC2ERSsS0_
0000000000118e50 T _ZN9RouteInfoC2ERSsS0_S0_
0000000000118f00 T _ZN9RouteInfoD1Ev
0000000000118f00 T _ZN9RouteInfoD2Ev
0000000000135fb0 T _ZN9XmlIfcMgr10addElementERKSs
0000000000135c90 T _ZN9XmlIfcMgr10endElementERKSs
0000000000135d90 T _ZN9XmlIfcMgr12addAttributeERKSsS1_
0000000000135f00 T _ZN9XmlIfcMgr13setNewElementERKSs
0000000000135ec0 T _ZN9XmlIfcMgr14getElementListEv
0000000000135cd0 T _ZN9XmlIfcMgr15setElementValueERKSs
0000000000135ff0 T _ZN9XmlIfcMgr17deleteXmlElementsEv
0000000000135e70 T _ZN9XmlIfcMgrC1Ev
0000000000135e70 T _ZN9XmlIfcMgrC2Ev
00000000001360e0 T _ZN9XmlIfcMgrD0Ev
0000000000136060 T _ZN9XmlIfcMgrD1Ev
0000000000136060 T _ZN9XmlIfcMgrD2Ev
                 U _ZN9XmlParser8parseXmlERKSsb
                 U _ZN9XmlParser9parseFileERKSsb
                 U _ZN9XmlParserC1EP6XmlMgr
                 U _ZN9XmlParserD1Ev
                 U _Znam@GLIBCXX_3.4
00000000000bf720 T _ZNK10Preference11getChildrenEv
00000000000bf760 T _ZNK10Preference14getPromptEntryEv
00000000000bf6a0 T _ZNK10Preference15getPreferenceIdEv
00000000000bf660 T _ZNK10Preference18getPreferenceValueEv
00000000000ab900 T _ZNK10ProfileMgr22GetHostProfileFromListEPKSt4listIP11HostProfileSaIS2_EERKSs19ConnectProtocolTypeRS2_
00000000000ac210 T _ZNK10ProfileMgr25GetProfileNameFromAddressERKSs19ConnectProtocolTypeRSs
                 U _ZNK11CCertHelper21SetCertificatePinListERKSt4listISsSaISsEE
                 U _ZNK11CHttpHeader5emptyEv
                 U _ZNK11CIpcMessage14copyIpcMessageERPS_
00000000001061d0 T _ZNK11HostProfile11getHostNameEv
0000000000107030 T _ZNK11HostProfile12getUserGroupEv
0000000000106220 T _ZNK11HostProfile14getHostAddressEv
0000000000106320 T _ZNK11HostProfile14getIKEIdentityEv
0000000000107120 T _ZNK11HostProfile15getCAThumbprintEv
00000000001063b0 T _ZNK11HostProfile15getCertAuthHashEv
0000000000107580 T _ZNK11HostProfile15isHostInProfileEv
0000000000106110 T _ZNK11HostProfile16getHostInProfileEv
0000000000106280 T _ZNK11HostProfile18getPrimaryProtocolEv
0000000000106150 T _ZNK11HostProfile19getStandardAuthOnlyEv
0000000000107080 T _ZNK11HostProfile20getAutomaticSCEPHostEv
0000000000106370 T _ZNK11HostProfile20getCertificatePolicyEv
0000000000107170 T _ZNK11HostProfile23getPromptForChallengePWEv
00000000001071f0 T _ZNK11HostProfile23isActiveOnImportEnabledEv
00000000001071b0 T _ZNK11HostProfile24isConnectOnDemandEnabledEv
00000000001062d0 T _ZNK11HostProfile33getAuthMethodDuringIKENegotiationEv
00000000001070d0 T _ZNK11HostProfile8getCAURLEv
00000000000bba90 T _ZNK11PromptEntry10isReadOnlyEv
00000000000bb850 T _ZNK11PromptEntry12isEntryGroupEv
00000000000bb910 T _ZNK11PromptEntry13getPromptNameEv
00000000000bb9d0 T _ZNK11PromptEntry13getPromptTypeEv
00000000000bb950 T _ZNK11PromptEntry14getPromptLabelEv
00000000000bb990 T _ZNK11PromptEntry15getValueOptionsEv
00000000000bb890 T _ZNK11PromptEntry8getValueEv
00000000000bba10 T _ZNK11PromptEntry9isEnabledEv
00000000000bba50 T _ZNK11PromptEntry9isVisibleEv
                 U _ZNK12CCertificate14GetFingerprintERSs8eHashAlg
                 U _ZNK12CStoragePath11GetMainPathElb
                 U _ZNK12CStoragePath15GetBinariesPathEl
                 U _ZNK12CStoragePath17GetPreferencePathEb17PreferenceSubpathRKSsb
                 U _ZNK12CStoragePath18GetVpnProfilesPathE16VPN_TUNNEL_SCOPE
                 U _ZNK12CStoragePath20GetVpnGlobalDataPathEv
                 U _ZNK12CStoragePath22GetUserProgramDataPathERKSs
                 U _ZNK13CConfigCookie17GetCfgCookieValueE19CVC_CFG_COOKIE_NAME
00000000000d3270 T _ZNK13ClientIfcBase18IsCsdTokenVerifiedEv
00000000000c4a90 T _ZNK13PreferenceMgr34copyLegacyFileIfNewFileUnavailableEv
00000000001409e0 T _ZNK13XmlAggAuthMgr10getDocTypeEv
0000000000140ad0 T _ZNK13XmlAggAuthMgr11getAuthPartEv
0000000000142770 T _ZNK13XmlAggAuthMgr12getSessionIdEv
0000000000140cc0 T _ZNK13XmlAggAuthMgr13getConfigPartEv
0000000000140eb0 T _ZNK13XmlAggAuthMgr13getCustomPartEv
0000000000141f70 T _ZNK13XmlAggAuthMgr13isSCEPEnabledEv
0000000000141250 T _ZNK13XmlAggAuthMgr14isCertRequiredEv
00000000001422b0 T _ZNK13XmlAggAuthMgr14isNoPkgPresentEv
00000000001426a0 T _ZNK13XmlAggAuthMgr15getSessionTokenEv
0000000000142840 T _ZNK13XmlAggAuthMgr17getAggAuthVersionEv
0000000000141630 T _ZNK13XmlAggAuthMgr17getMultiCertStoreEv
00000000001420c0 T _ZNK13XmlAggAuthMgr18isEnrollNowEnabledEv
0000000000142570 T _ZNK13XmlAggAuthMgr18isHostScanRequiredEv
0000000000141d80 T _ZNK13XmlAggAuthMgr23isCriticalErrorReceivedEv
0000000000141440 T _ZNK13XmlAggAuthMgr23isMultiCertAuthRequiredEv
00000000001418c0 T _ZNK13XmlAggAuthMgr25getMultiCertHashAlgorithmEv
00000000001424a0 T _ZNK13XmlAggAuthMgr9getCSPortEv
000000000011b470 T _ZNK14ConnectIfcData15getSsoSessionIdEv
000000000011b430 T _ZNK14ConnectIfcData15hasSsoSessionIdEv
000000000011b6f0 T _ZNK14ConnectIfcData19getSsoSessionIdHashEv
000000000011b6b0 T _ZNK14ConnectIfcData19hasSsoSessionIdHashEv
000000000011bf30 T _ZNK14ConnectIfcData20getAggAuthClientCertEv
000000000011bef0 T _ZNK14ConnectIfcData20hasAggAuthClientCertEv
000000000011b5b0 T _ZNK14ConnectIfcData21getSsoSessionIdBase64Ev
000000000011b570 T _ZNK14ConnectIfcData21hasSsoSessionIdBase64Ev
000000000011b800 T _ZNK14ConnectIfcData25getSsoSessionIdHashBase64Ev
000000000011b7c0 T _ZNK14ConnectIfcData25hasSsoSessionIdHashBase64Ev
00000000000be260 T _ZNK14PreferenceBase11getChildrenEv
00000000000be3d0 T _ZNK14PreferenceBase14getPromptEntryEv
00000000000be0d0 T _ZNK14PreferenceBase15getPreferenceIdEv
00000000000be220 T _ZNK14PreferenceBase18getPreferenceScopeEv
00000000000be050 T _ZNK14PreferenceBase18getPreferenceValueEv
00000000000c2700 T _ZNK14PreferenceInfo13getPreferenceERK12PreferenceIdRP10Preference
00000000000c26c0 T _ZNK14PreferenceInfo16countPreferencesEv
00000000000c2740 T _ZNK14PreferenceInfo18getListPreferencesEv
00000000000c2780 T _ZNK14PreferenceInfo20getPreferenceHeadingEv
0000000000116e60 T _ZNK14VPNStatsWriter24getUserFriendlyOSVersionEv
                 U _ZNK15CSessionInfoTlv21GetSGFriendlyHostNameERSs
                 U _ZNK15CSessionInfoTlv23GetExternalSSOLogoutUrlERSs
00000000000bc3d0 T _ZNK15PromptEntryBase10isReadOnlyEv
00000000000bc050 T _ZNK15PromptEntryBase12getTrueValueEv
00000000000bbcf0 T _ZNK15PromptEntryBase12isEntryGroupEv
00000000000bc190 T _ZNK15PromptEntryBase13getPromptNameEv
00000000000bc290 T _ZNK15PromptEntryBase13getPromptTypeEv
00000000000bc1d0 T _ZNK15PromptEntryBase14getPromptLabelEv
00000000000bc250 T _ZNK15PromptEntryBase15getValueOptionsEv
00000000000bc420 T _ZNK15PromptEntryBase18getGroupAttributesERKSs
00000000000bc530 T _ZNK15PromptEntryBase19getSingleAttributesEv
00000000000bc010 T _ZNK15PromptEntryBase8getValueEv
00000000000bc2d0 T _ZNK15PromptEntryBase9isEnabledEv
00000000000bc350 T _ZNK15PromptEntryBase9isVisibleEv
                 U _ZNK16CExtensibleStats12ContainsStatE12StatCategory15StatSubCategory8StatType
                 U _ZNK16CExtensibleStats7getStatE12StatCategory15StatSubCategory8StatType
                 U _ZNK16CProxyServerList17GetCurProxyServerEv
                 U _ZNK16CStartParameters12GetProxyHostERSs
                 U _ZNK16CStartParameters12GetProxyPortERSs
                 U _ZNK16CStartParameters12GetProxyPswdERSs
                 U _ZNK16CStartParameters12GetProxyTypeERt
                 U _ZNK16CStartParameters12GetProxyUserERSs
                 U _ZNK16CStartParameters13GetProxyRealmERSs
                 U _ZNK16CStartParameters14GetProxyEnPswdERjPh
                 U _ZNK16CStartParameters14GetProxyEnUserERjPh
                 U _ZNK16CStartParameters15GetProxyMessageERSs
                 U _ZNK16CStartParameters17GetProxyAuthorityERSs
                 U _ZNK16CStartParameters19GetProxyEnAuthorityERjPh
00000000000e4750 T _ZNK16HostInitSettings18isEnabledSecureTNDEv
                 U _ZNK16XmlLocalACPolMgr22GetLocalPolicyLocationERSsS0_
                 U _ZNK17CCustomAttributes28UseLocalProfileAsAlternativeEv
00000000000b8d80 T _ZNK17ConnectPromptInfo10getMessageEv
00000000000b8c40 T _ZNK17ConnectPromptInfo10isCanceledEv
00000000000b8e80 T _ZNK17ConnectPromptInfo14getPromptEntryERKSs
00000000000b8f00 T _ZNK17ConnectPromptInfo15hasEnrollmentCAEv
00000000000b8d40 T _ZNK17ConnectPromptInfo16countPromptEntryEv
00000000000b8cc0 T _ZNK17ConnectPromptInfo16getResponseErrorEv
00000000000b8ec0 T _ZNK17ConnectPromptInfo18getListPromptEntryEv
00000000000b8e40 T _ZNK17ConnectPromptInfo18getListPromptNamesERSt4listISsSaISsEE
00000000000b8fc0 T _ZNK17ConnectPromptInfo19getSubmitButtonNameEv
00000000000b8c00 T _ZNK17ConnectPromptInfo20getConnectPromptTypeEv
00000000000b8e00 T _ZNK17ConnectPromptInfo22getAuthenticationErrorEv
00000000000b8dc0 T _ZNK17ConnectPromptInfo22hasAuthenticationErrorEv
00000000000b9000 T _ZNK17ConnectPromptInfo7isEmptyEv
                 U _ZNK17LocalACPolicyInfo11UseFIPSModeEv
                 U _ZNK17LocalACPolicyInfo16BypassDownloaderEv
                 U _ZNK17LocalACPolicyInfo17ExcludeCertStoresEv
                 U _ZNK17LocalACPolicyInfo19RestrictPrefCachingEv
                 U _ZNK17LocalACPolicyInfo19StrictCertTrustModeEv
                 U _ZNK17LocalACPolicyInfo23GetAuthorizedServerListEv
                 U _ZNK17LocalACPolicyInfo23IsOCSPRevocationEnabledEv
                 U _ZNK17LocalACPolicyInfo25IsRestrictServerCertStoreEv
                 U _ZNK18CLinuxProxyUtility29IsLinuxProxySettingFixedLocalEv
00000000000bfc20 T _ZNK18PreferenceInfoBase13getPreferenceE12PreferenceIdRP10Preference
00000000000bfbe0 T _ZNK18PreferenceInfoBase16countPreferencesEv
00000000000c08f0 T _ZNK18PreferenceInfoBase17getAllPreferencesEv
00000000000bf8b0 T _ZNK18PreferenceInfoBase18getListPreferencesEv
00000000000bf830 T _ZNK18PreferenceInfoBase18getPreferencesTypeEv
00000000000bfad0 T _ZNK18PreferenceInfoBase20getPreferenceHeadingEv
00000000000bf8f0 T _ZNK18PreferenceInfoBase23getAllPreferencesSortedERSt4listISt4pairIP10PreferencejESaIS4_EE
                 U _ZNK18XmlHierarchicalMgr13getDescendantERKSsS1_S1_
                 U _ZNK18XmlHierarchicalMgr18getDescendantValueERKSs
                 U _ZNK18XmlHierarchicalMgr8getChildERKSsS1_S1_
                 U _ZNK19CCertificateInfoTlv12GetCertPKCS7ERSt6vectorIhSaIhEE
                 U _ZNK19CCertificateInfoTlv13GetCertBase64ERSs
                 U _ZNK19CCertificateInfoTlv13GetCertFormatERSs
                 U _ZNK19CCertificateInfoTlv13GetThumbprintERSs
                 U _ZNK19CCertificateInfoTlv13HasCertBase64Ev
                 U _ZNK19CCertificateInfoTlv13HasCertFormatEv
                 U _ZNK19CCertificateInfoTlv25GetCertStoreMultiCertAuthERSs
                 U _ZNK19CCertificateInfoTlv25HasCertStoreMultiCertAuthEv
                 U _ZNK19CCertificateInfoTlv26GetCertAuthSignatureBase64ERSs
                 U _ZNK19CCertificateInfoTlv26HasCertAuthSignatureBase64Ev
                 U _ZNK19CCertificateInfoTlv27GetCertAuthSignatureHashAlgERSs
                 U _ZNK19CCertificateInfoTlv27GetCertExchangedViaProtocolERb
                 U _ZNK19CCertificateInfoTlv27HasCertAuthSignatureHashAlgEv
                 U _ZNK19CCertificateInfoTlv27HasCertExchangedViaProtocolEv
                 U _ZNK19CHttpHeaderResponse10getCookiesEv
                 U _ZNK19CHttpHeaderResponse10isNotFoundEv
                 U _ZNK19CHttpHeaderResponse10isRedirectEv
                 U _ZNK19CHttpHeaderResponse11getLocationEv
                 U _ZNK19CHttpHeaderResponse14getCookieCountEv
                 U _ZNK19CHttpHeaderResponse14hasCiscoHeaderEv
                 U _ZNK19CHttpHeaderResponse15isRedirectFoundEv
                 U _ZNK19CHttpHeaderResponse16isContentTypeXMLEv
                 U _ZNK19CHttpHeaderResponse17getProxyAuthRealmESs
                 U _ZNK19CHttpHeaderResponse17isContentTypeHTMLEv
                 U _ZNK19CHttpHeaderResponse17isContentTypeTextEv
                 U _ZNK19CHttpHeaderResponse18isProxyAuthRequestEv
                 U _ZNK19CHttpHeaderResponse19getProxyAuthSchemesEv
                 U _ZNK19CHttpHeaderResponse19isContentTypePKCS12Ev
                 U _ZNK19CHttpHeaderResponse20getGenericFieldCountERKSs
                 U _ZNK19CHttpHeaderResponse22isContentTypePLAINTEXTEv
                 U _ZNK19CHttpHeaderResponse26getUniqueGenericFieldValueERKSs
                 U _ZNK19CHttpHeaderResponse4isOkEv
00000000000e4f90 T _ZNK19SecureTNDServerListeqERKS_
00000000000e5040 T _ZNK19SecureTNDServerListneERKS_
00000000000b99d0 T _ZNK21ConnectPromptInfoBase10getMessageEv
00000000000b9510 T _ZNK21ConnectPromptInfoBase10isCanceledEv
00000000000b9750 T _ZNK21ConnectPromptInfoBase12isAutoSubmitEv
00000000000b98f0 T _ZNK21ConnectPromptInfoBase14getPromptEntryERKSs
00000000000b96d0 T _ZNK21ConnectPromptInfoBase14isAgentRequestEv
00000000000b9ca0 T _ZNK21ConnectPromptInfoBase15hasEnrollmentCAEv
00000000000b9650 T _ZNK21ConnectPromptInfoBase15useEnrollmentCAEv
00000000000b9a70 T _ZNK21ConnectPromptInfoBase16countPromptEntryEv
00000000000b9590 T _ZNK21ConnectPromptInfoBase16getResponseErrorEv
00000000000b98b0 T _ZNK21ConnectPromptInfoBase18getListPromptEntryEv
00000000000b9ad0 T _ZNK21ConnectPromptInfoBase18getListPromptNamesERSt4listISsSaISsEE
00000000000ba150 T _ZNK21ConnectPromptInfoBase19getSubmitButtonNameEv
00000000000b9490 T _ZNK21ConnectPromptInfoBase20getConnectPromptTypeEv
00000000000b97d0 T _ZNK21ConnectPromptInfoBase22getAuthenticationErrorEv
00000000000b9790 T _ZNK21ConnectPromptInfoBase22hasAuthenticationErrorEv
00000000000b9860 T _ZNK21ConnectPromptInfoBase29getAuthenticationErrorMessageEv
00000000000b9ce0 T _ZNK21ConnectPromptInfoBase5validEv
00000000000ba550 T _ZNK21ConnectPromptInfoBase7isEmptyEv
00000000000ba7a0 T _ZNK21ConnectPromptInfoBase8toStringEv
                 U _ZNK22CInstalledManifestInfo16GetInstalledTypeERKSs
                 U _ZNK22XmlHierarchicalElement12getAttributeERKSs
                 U _ZNK22XmlHierarchicalElement13getDescendantERKSsS1_S1_
                 U _ZNK22XmlHierarchicalElement16findChildElementERKSsS1_S1_
                 U _ZNK22XmlHierarchicalElement17getAttributesListERSt4listISt4pairISsSsESaIS2_EE
                 U _ZNK22XmlHierarchicalElement18getDescendantValueERKSs
                 U _ZNK24CNotifyAgentPreTunnelTlv13GetDeviceNameERSs
                 U _ZNK24CNotifyAgentPreTunnelTlv13GetDeviceTypeERSs
                 U _ZNK24CNotifyAgentPreTunnelTlv14GetHostAddressERSs
                 U _ZNK24CNotifyAgentPreTunnelTlv14GetProxyStringERSs
                 U _ZNK24CNotifyAgentPreTunnelTlv15GetMacAddressesERSt3mapISsbSt4lessISsESaISt4pairIKSsbEEE
                 U _ZNK24CNotifyAgentPreTunnelTlv17GetDeviceUniqueIDERSs
                 U _ZNK24CNotifyAgentPreTunnelTlv17GetStrapPublicKeyERSs
                 U _ZNK24CNotifyAgentPreTunnelTlv18GetConnectContinueERb
                 U _ZNK24CNotifyAgentPreTunnelTlv18GetDecodedSSOTokenERSs
                 U _ZNK24CNotifyAgentPreTunnelTlv18GetPlatformVersionERSs
                 U _ZNK24CNotifyAgentPreTunnelTlv19GetStrapDHPublicKeyERSs
                 U _ZNK24CNotifyAgentPreTunnelTlv20GetConnectStopReasonERNS_19CONNECT_STOP_REASONE
                 U _ZNK24CNotifyAgentPreTunnelTlv23GetDeviceGlobalUniqueIDERSs
                 U _ZNK24CNotifyAgentPreTunnelTlv23GetPrimaryHostIPAddressERSs
                 U _ZNK24CNotifyAgentPreTunnelTlv25GetSecondaryHostIPAddressERSs
                 U _ZNK24CNotifyAgentPreTunnelTlv32GetHostRequiresProxyWithAlwaysOnERb
                 U _ZNK24CNotifyAgentPreTunnelTlv36GetHostMightRequireProxyWithAlwaysOnERb
                 U _ZNK3URL10getHostURLENS_12URL_PROTOCOLE
                 U _ZNK3URL15getHostFragmentEv
                 U _ZNK3URL6getURLENS_12URL_PROTOCOLE
                 U _ZNK4CTLV13GetInfoByTypeEjRtj
000000000013f120 T _ZNK7AggAuth12getConfigStrEv
0000000000139830 T _ZNK7AggAuth12getSessionIdEv
000000000013a970 T _ZNK7AggAuth13getCustomPartEv
00000000001397f0 T _ZNK7AggAuth15getSessionTokenEv
0000000000139950 T _ZNK7AggAuth17GetAggAuthVersionEv
0000000000139870 T _ZNK7AggAuth19getAvailableVersionEv
00000000000b6510 T _ZNK7CertObj20getClientCertificateEv
00000000000b6be0 T _ZNK7CertObjeqERKS_
                 U _ZNK7CIPAddr22IsIPv6SiteLocalAddressEv
                 U _ZNK7CIPCTLV12GetAttributeEjRtS0_
                 U _ZNK7CIPCTLV12GetAttributeEjRtS0_Ph
                 U _ZNK7CIPCTLV12GetAttributeEjRtS0_PPKh
                 U _ZNK7CIPCTLV14getStringValueEjRSsj
                 U _ZNK7Version7compareERKS_
                 U _ZNK8CTimeVal11CompareTimeERKS_
0000000000119000 T _ZNK9RouteInfo10getNetworkEv
00000000001190c0 T _ZNK9RouteInfo11getHashCodeEv
0000000000119080 T _ZNK9RouteInfo12getHostNamesEv
0000000000119040 T _ZNK9RouteInfo9getSubnetEv
                 U _ZNKSs12find_last_ofEPKcmm@GLIBCXX_3.4
                 U _ZNKSs13find_first_ofEPKcmm@GLIBCXX_3.4
                 U _ZNKSs17find_first_not_ofEPKcmm@GLIBCXX_3.4
                 U _ZNKSs4findEcm@GLIBCXX_3.4
                 U _ZNKSs4findEPKcmm@GLIBCXX_3.4
                 U _ZNKSs5rfindEcm@GLIBCXX_3.4
                 U _ZNKSs5rfindEPKcmm@GLIBCXX_3.4
                 U _ZNKSs7compareEmmRKSs@GLIBCXX_3.4
                 U _ZNKSs7compareEPKc@GLIBCXX_3.4
                 U _ZNKSs7compareERKSs@GLIBCXX_3.4
                 U _ZNKSt12__basic_fileIcE7is_openEv@GLIBCXX_3.4
                 U _ZNKSt13runtime_error4whatEv@GLIBCXX_3.4
                 U _ZNKSt15basic_stringbufIcSt11char_traitsIcESaIcEE3strEv@GLIBCXX_3.4
                 U _ZNKSt5ctypeIcE13_M_widen_initEv@GLIBCXX_3.4.11
00000000000c8ba0 W _ZNKSt8_Rb_treeISsSt4pairIKSsPSt4listIP11HostProfileSaIS4_EEESt10_Select1stIS8_ESt4lessISsESaIS8_EE4findERS1_
00000000000a7b70 W _ZNKSt8_Rb_treeISsSt4pairIKSsSsESt10_Select1stIS2_ESt4lessISsESaIS2_EE4findERS1_
                 U _ZNSbIwSt11char_traitsIwESaIwEE4_Rep10_M_destroyERKS1_@GLIBCXX_3.4
                 U _ZNSbIwSt11char_traitsIwESaIwEE4_Rep20_S_empty_rep_storageE@GLIBCXX_3.4
                 U _ZNSbIwSt11char_traitsIwESaIwEE6appendEPKwm@GLIBCXX_3.4
                 U _ZNSbIwSt11char_traitsIwESaIwEE6assignEPKwm@GLIBCXX_3.4
                 U _ZNSbIwSt11char_traitsIwESaIwEE7reserveEm@GLIBCXX_3.4
                 U _ZNSbIwSt11char_traitsIwESaIwEE9_M_mutateEmmm@GLIBCXX_3.4
                 U _ZNSbIwSt11char_traitsIwESaIwEEC1EPKwmRKS1_@GLIBCXX_3.4
                 U _ZNSbIwSt11char_traitsIwESaIwEEC1EPKwRKS1_@GLIBCXX_3.4
                 U _ZNSdD2Ev@GLIBCXX_3.4
                 U _ZNSi10_M_extractIjEERSiRT_@GLIBCXX_3.4.9
                 U _ZNSi10_M_extractImEERSiRT_@GLIBCXX_3.4.9
                 U _ZNSirsERi@GLIBCXX_3.4
                 U _ZNSo3putEc@GLIBCXX_3.4
                 U _ZNSo5flushEv@GLIBCXX_3.4
                 U _ZNSo5writeEPKcl@GLIBCXX_3.4
                 U _ZNSo9_M_insertIbEERSoT_@GLIBCXX_3.4.9
                 U _ZNSo9_M_insertIlEERSoT_@GLIBCXX_3.4.9
                 U _ZNSo9_M_insertImEERSoT_@GLIBCXX_3.4.9
                 U _ZNSolsEi@GLIBCXX_3.4
                 U _ZNSs12_M_leak_hardEv@GLIBCXX_3.4
                 U _ZNSs14_M_replace_auxEmmmc@GLIBCXX_3.4
                 U _ZNSs3endEv@GLIBCXX_3.4
                 U _ZNSs4_Rep10_M_destroyERKSaIcE@GLIBCXX_3.4
                 U _ZNSs4_Rep10_M_disposeERKSaIcE@GLIBCXX_3.4
                 U _ZNSs4_Rep20_S_empty_rep_storageE@GLIBCXX_3.4
                 U _ZNSs4_Rep9_S_createEmmRKSaIcE@GLIBCXX_3.4
                 U _ZNSs4swapERSs@GLIBCXX_3.4
                 U _ZNSs5eraseEmm@GLIBCXX_3.4
                 U _ZNSs5eraseEN9__gnu_cxx17__normal_iteratorIPcSsEES2_@GLIBCXX_3.4
                 U _ZNSs6appendEmc@GLIBCXX_3.4
                 U _ZNSs6appendEPKc@GLIBCXX_3.4
                 U _ZNSs6appendEPKcm@GLIBCXX_3.4
                 U _ZNSs6appendERKSs@GLIBCXX_3.4
                 U _ZNSs6assignEPKc@GLIBCXX_3.4
                 U _ZNSs6assignEPKcm@GLIBCXX_3.4
                 U _ZNSs6assignERKSs@GLIBCXX_3.4
                 U _ZNSs6insertEmPKc@GLIBCXX_3.4
                 U _ZNSs6insertEmPKcm@GLIBCXX_3.4
                 U _ZNSs7replaceEmmPKcm@GLIBCXX_3.4
                 U _ZNSs7reserveEm@GLIBCXX_3.4
                 U _ZNSs9_M_mutateEmmm@GLIBCXX_3.4
                 U _ZNSs9push_backEc@GLIBCXX_3.4
                 U _ZNSsC1EmcRKSaIcE@GLIBCXX_3.4
                 U _ZNSsC1EPKcmRKSaIcE@GLIBCXX_3.4
                 U _ZNSsC1EPKcRKSaIcE@GLIBCXX_3.4
                 U _ZNSsC1ERKSs@GLIBCXX_3.4
                 U _ZNSsC1ERKSsmm@GLIBCXX_3.4
                 U _ZNSsC2ERKSs@GLIBCXX_3.4
                 U _ZNSsD1Ev@GLIBCXX_3.4
00000000000e4290 W _ZNSt10_List_baseI11HostProfileSaIS0_EE8_M_clearEv
00000000000b4160 W _ZNSt10_List_baseI9HostEntrySaIS0_EE8_M_clearEv
000000000009a5b0 W _ZNSt10_List_baseISsSaISsEE8_M_clearEv
000000000009a810 W _ZNSt10_List_baseISt4pairISsSsESaIS1_EE8_M_clearEv
00000000000d0f50 W _ZNSt11unique_lockISt5mutexE6unlockEv
                 U _ZNSt12bad_weak_ptrD1Ev@GLIBCXX_3.4.15
                 U _ZNSt12__basic_fileIcED1Ev@GLIBCXX_3.4
                 U _ZNSt13basic_filebufIcSt11char_traitsIcEE4openEPKcSt13_Ios_Openmode@GLIBCXX_3.4
                 U _ZNSt13basic_filebufIcSt11char_traitsIcEE5closeEv@GLIBCXX_3.4
                 U _ZNSt13basic_filebufIcSt11char_traitsIcEEC1Ev@GLIBCXX_3.4
                 U _ZNSt13basic_filebufIcSt11char_traitsIcEED1Ev@GLIBCXX_3.4
                 U _ZNSt13runtime_errorC2ERKSs@GLIBCXX_3.4
                 U _ZNSt13runtime_errorD2Ev@GLIBCXX_3.4
                 U _ZNSt14basic_ifstreamIcSt11char_traitsIcEED1Ev@GLIBCXX_3.4
                 U _ZNSt14basic_ofstreamIcSt11char_traitsIcEED1Ev@GLIBCXX_3.4
                 U _ZNSt15basic_stringbufIcSt11char_traitsIcESaIcEE7_M_syncEPcmm@GLIBCXX_3.4
0000000000052bb0 W _ZNSt15basic_stringbufIcSt11char_traitsIcESaIcEED0Ev
0000000000052b10 W _ZNSt15basic_stringbufIcSt11char_traitsIcESaIcEED1Ev
0000000000052b10 W _ZNSt15basic_stringbufIcSt11char_traitsIcESaIcEED2Ev
000000000005d5d0 W _ZNSt16_Sp_counted_baseILN9__gnu_cxx12_Lock_policyE2EE10_M_destroyEv
00000000000d0b60 W _ZNSt16_Sp_counted_baseILN9__gnu_cxx12_Lock_policyE2EE10_M_releaseEv
000000000005d840 W _ZNSt16_Sp_counted_baseILN9__gnu_cxx12_Lock_policyE2EED0Ev
000000000005d630 W _ZNSt16_Sp_counted_baseILN9__gnu_cxx12_Lock_policyE2EED1Ev
000000000005d630 W _ZNSt16_Sp_counted_baseILN9__gnu_cxx12_Lock_policyE2EED2Ev
                 U _ZNSt18basic_stringstreamIcSt11char_traitsIcESaIcEEC1ESt13_Ios_Openmode@GLIBCXX_3.4
                 U _ZNSt18basic_stringstreamIcSt11char_traitsIcESaIcEED1Ev@GLIBCXX_3.4
                 U _ZNSt18condition_variable10notify_allEv@GLIBCXX_3.4.11
                 U _ZNSt18condition_variable4waitERSt11unique_lockISt5mutexE@GLIBCXX_3.4.11
                 U _ZNSt19basic_ostringstreamIcSt11char_traitsIcESaIcEED1Ev@GLIBCXX_3.4
                 U _ZNSt22condition_variable_anyC2Ev@GLIBCXX_3.4.11
                 U _ZNSt22condition_variable_anyD2Ev@GLIBCXX_3.4.11
00000000000d0090 W _ZNSt23_Sp_counted_ptr_inplaceI14PreferenceInfoSaIS0_ELN9__gnu_cxx12_Lock_policyE2EE10_M_destroyEv
00000000000cff50 W _ZNSt23_Sp_counted_ptr_inplaceI14PreferenceInfoSaIS0_ELN9__gnu_cxx12_Lock_policyE2EE10_M_disposeEv
00000000000d0260 W _ZNSt23_Sp_counted_ptr_inplaceI14PreferenceInfoSaIS0_ELN9__gnu_cxx12_Lock_policyE2EE14_M_get_deleterERKSt9type_info
00000000000d0050 W _ZNSt23_Sp_counted_ptr_inplaceI14PreferenceInfoSaIS0_ELN9__gnu_cxx12_Lock_policyE2EED0Ev
00000000000cff10 W _ZNSt23_Sp_counted_ptr_inplaceI14PreferenceInfoSaIS0_ELN9__gnu_cxx12_Lock_policyE2EED1Ev
00000000000cff10 W _ZNSt23_Sp_counted_ptr_inplaceI14PreferenceInfoSaIS0_ELN9__gnu_cxx12_Lock_policyE2EED2Ev
0000000000166df0 W _ZNSt3mapI12PreferenceIdSsSt4lessIS0_ESaISt4pairIKS0_SsEEED1Ev
0000000000166df0 W _ZNSt3mapI12PreferenceIdSsSt4lessIS0_ESaISt4pairIKS0_SsEEED2Ev
000000000009af40 W _ZNSt3mapIj17CertConfirmReasonSt4lessIjESaISt4pairIKjS0_EEED1Ev
000000000009af40 W _ZNSt3mapIj17CertConfirmReasonSt4lessIjESaISt4pairIKjS0_EEED2Ev
0000000000144650 W _ZNSt3mapISsbSt4lessISsESaISt4pairIKSsbEEED1Ev
0000000000144650 W _ZNSt3mapISsbSt4lessISsESaISt4pairIKSsbEEED2Ev
00000000000bd8b0 W _ZNSt3mapISsSsSt4lessISsESaISt4pairIKSsSsEEED1Ev
00000000000bd8b0 W _ZNSt3mapISsSsSt4lessISsESaISt4pairIKSsSsEEED2Ev
000000000005f5e0 W _ZNSt3setImSt4lessImESaImEED1Ev
000000000005f5e0 W _ZNSt3setImSt4lessImESaImEED2Ev
0000000000099550 W _ZNSt4listIP7CertObjSaIS1_EE6removeERKS1_
0000000000099c10 W _ZNSt4listIP7CertObjSaIS1_EEaSERKS3_
00000000000b4830 W _ZNSt4listISsSaISsEE4sortEv
00000000000b4710 W _ZNSt4listISsSaISsEE5mergeEOS1_
00000000000999e0 W _ZNSt4listISsSaISsEE9push_backERKSs
000000000009a690 W _ZNSt4listISsSaISsEEaSERKS1_
00000000000bd7d0 W _ZNSt4listISsSaISsEED1Ev
00000000000bd7d0 W _ZNSt4listISsSaISsEED2Ev
00000000001405f0 W _ZNSt4listISt4pairISsSsESaIS1_EEaSERKS3_
0000000000144520 W _ZNSt4listISt4pairISsSsESaIS1_EED1Ev
0000000000144520 W _ZNSt4listISt4pairISsSsESaIS1_EED2Ev
0000000000099060 W _ZNSt4pairIKSsSsED1Ev
0000000000099060 W _ZNSt4pairIKSsSsED2Ev
0000000000099120 W _ZNSt4pairISsSsED1Ev
0000000000099120 W _ZNSt4pairISsSsED2Ev
                 U _ZNSt6localeC1ERKS_@GLIBCXX_3.4
                 U _ZNSt6localeC1Ev@GLIBCXX_3.4
                 U _ZNSt6localeD1Ev@GLIBCXX_3.4
000000000009a480 W _ZNSt6vectorIhSaIhEE17_M_default_appendEm
000000000012fc20 W _ZNSt6vectorIhSaIhEEaSERKS1_
0000000000148480 W _ZNSt6vectorIiSaIiEE19_M_emplace_back_auxIIRKiEEEvDpOT_
0000000000148480 W _ZNSt6vectorIiSaIiEE19_M_emplace_back_auxIJRKiEEEvDpOT_
0000000000156660 W _ZNSt6vectorIjSaIjEE19_M_emplace_back_auxIIRKjEEEvDpOT_
0000000000156660 W _ZNSt6vectorIjSaIjEE19_M_emplace_back_auxIJRKjEEEvDpOT_
000000000009c810 W _ZNSt6vectorIPKcSaIS1_EE19_M_emplace_back_auxIIS1_EEEvDpOT_
000000000009c810 W _ZNSt6vectorIPKcSaIS1_EE19_M_emplace_back_auxIJS1_EEEvDpOT_
0000000000155c50 W _ZNSt6vectorISsSaISsEE12emplace_backIISsEEEvDpOT_
0000000000155c50 W _ZNSt6vectorISsSaISsEE12emplace_backIJSsEEEvDpOT_
0000000000156ba0 W _ZNSt6vectorISsSaISsEE13_M_insert_auxIISsEEEvN9__gnu_cxx17__normal_iteratorIPSsS1_EEDpOT_
0000000000156ba0 W _ZNSt6vectorISsSaISsEE13_M_insert_auxIJSsEEEvN9__gnu_cxx17__normal_iteratorIPSsS1_EEDpOT_
0000000000156780 W _ZNSt6vectorISsSaISsEE17_M_default_appendEm
000000000009b6c0 W _ZNSt6vectorISsSaISsEE19_M_emplace_back_auxIIRKSsEEEvDpOT_
00000000000e4070 W _ZNSt6vectorISsSaISsEE19_M_emplace_back_auxIISsEEEvDpOT_
000000000009b6c0 W _ZNSt6vectorISsSaISsEE19_M_emplace_back_auxIJRKSsEEEvDpOT_
00000000000e4070 W _ZNSt6vectorISsSaISsEE19_M_emplace_back_auxIJSsEEEvDpOT_
0000000000099900 W _ZNSt6vectorISsSaISsEED1Ev
0000000000099900 W _ZNSt6vectorISsSaISsEED2Ev
                 U _ZNSt8__detail15_List_node_base11_M_transferEPS0_S1_@GLIBCXX_3.4.15
                 U _ZNSt8__detail15_List_node_base4swapERS0_S1_@GLIBCXX_3.4.15
                 U _ZNSt8__detail15_List_node_base7_M_hookEPS0_@GLIBCXX_3.4.15
                 U _ZNSt8__detail15_List_node_base9_M_unhookEv@GLIBCXX_3.4.15
                 U _ZNSt8ios_base4InitC1Ev@GLIBCXX_3.4
                 U _ZNSt8ios_base4InitD1Ev@GLIBCXX_3.4
                 U _ZNSt8ios_baseC2Ev@GLIBCXX_3.4
                 U _ZNSt8ios_baseD2Ev@GLIBCXX_3.4
00000000000e3d50 W _ZNSt8_Rb_treeI12PreferenceIdS0_St9_IdentityIS0_ESt4lessIS0_ESaIS0_EE16_M_insert_uniqueIRKS0_EESt4pairISt17_Rb_tree_iteratorIS0_EbEOT_
00000000000e3b60 W _ZNSt8_Rb_treeI12PreferenceIdS0_St9_IdentityIS0_ESt4lessIS0_ESaIS0_EE8_M_eraseEPSt13_Rb_tree_nodeIS0_E
00000000000c2150 W _ZNSt8_Rb_treeI12PreferenceIdSt4pairIKS0_jESt10_Select1stIS3_ESt4lessIS0_ESaIS3_EE29_M_get_insert_hint_unique_posESt23_Rb_tree_const_iteratorIS3_ERS2_
00000000000c19c0 W _ZNSt8_Rb_treeI12PreferenceIdSt4pairIKS0_jESt10_Select1stIS3_ESt4lessIS0_ESaIS3_EE8_M_eraseEPSt13_Rb_tree_nodeIS3_E
00000000001668f0 W _ZNSt8_Rb_treeI12PreferenceIdSt4pairIKS0_SsESt10_Select1stIS3_ESt4lessIS0_ESaIS3_EE8_M_eraseEPSt13_Rb_tree_nodeIS3_E
000000000009bb10 W _ZNSt8_Rb_treeIjSt4pairIKj17CertConfirmReasonESt10_Select1stIS3_ESt4lessIjESaIS3_EE29_M_get_insert_hint_unique_posESt23_Rb_tree_const_iteratorIS3_ERS1_
000000000009bda0 W _ZNSt8_Rb_treeIjSt4pairIKj17CertConfirmReasonESt10_Select1stIS3_ESt4lessIjESaIS3_EE7_M_copyEPKSt13_Rb_tree_nodeIS3_EPSB_
000000000009ad50 W _ZNSt8_Rb_treeIjSt4pairIKj17CertConfirmReasonESt10_Select1stIS3_ESt4lessIjESaIS3_EE8_M_eraseEPSt13_Rb_tree_nodeIS3_E
0000000000135230 W _ZNSt8_Rb_treeImmSt9_IdentityImESt4lessImESaImEE16_M_insert_uniqueIRKmEESt4pairISt17_Rb_tree_iteratorImEbEOT_
0000000000135380 W _ZNSt8_Rb_treeImmSt9_IdentityImESt4lessImESaImEE5eraseERKm
00000000001359a0 W _ZNSt8_Rb_treeImmSt9_IdentityImESt4lessImESaImEE7_M_copyEPKSt13_Rb_tree_nodeImEPS7_
000000000005f3f0 W _ZNSt8_Rb_treeImmSt9_IdentityImESt4lessImESaImEE8_M_eraseEPSt13_Rb_tree_nodeImE
0000000000135710 W _ZNSt8_Rb_treeImSt4pairIKmjESt10_Select1stIS2_ESt4lessImESaIS2_EE29_M_get_insert_hint_unique_posESt23_Rb_tree_const_iteratorIS2_ERS1_
0000000000135520 W _ZNSt8_Rb_treeImSt4pairIKmjESt10_Select1stIS2_ESt4lessImESaIS2_EE8_M_eraseEPSt13_Rb_tree_nodeIS2_E
00000000000d0e00 W _ZNSt8_Rb_treeIN21CEventNotificationTlv10EVENT_CODEES1_St9_IdentityIS1_ESt4lessIS1_ESaIS1_EE16_M_insert_uniqueIRKS1_EESt4pairISt17_Rb_tree_iteratorIS1_EbEOT_
00000000000d0c10 W _ZNSt8_Rb_treeIN21CEventNotificationTlv10EVENT_CODEES1_St9_IdentityIS1_ESt4lessIS1_ESaIS1_EE8_M_eraseEPSt13_Rb_tree_nodeIS1_E
000000000012abb0 W _ZNSt8_Rb_treeISsSt4pairIKSs12SDITokenTypeESt10_Select1stIS3_ESt4lessISsESaIS3_EE16_M_insert_uniqueIS3_EES0_ISt17_Rb_tree_iteratorIS3_EbEOT_
000000000012a520 W _ZNSt8_Rb_treeISsSt4pairIKSs12SDITokenTypeESt10_Select1stIS3_ESt4lessISsESaIS3_EE8_M_eraseEPSt13_Rb_tree_nodeIS3_E
0000000000157270 W _ZNSt8_Rb_treeISsSt4pairIKSsbESt10_Select1stIS2_ESt4lessISsESaIS2_EE22_M_emplace_hint_uniqueIIRKSt21piecewise_construct_tSt5tupleIIRS1_EESD_IIEEEEESt17_Rb_tree_iteratorIS2_ESt23_Rb_tree_const_iteratorIS2_EDpOT_
0000000000157270 W _ZNSt8_Rb_treeISsSt4pairIKSsbESt10_Select1stIS2_ESt4lessISsESaIS2_EE22_M_emplace_hint_uniqueIJRKSt21piecewise_construct_tSt5tupleIJRS1_EESD_IJEEEEESt17_Rb_tree_iteratorIS2_ESt23_Rb_tree_const_iteratorIS2_EDpOT_
0000000000157110 W _ZNSt8_Rb_treeISsSt4pairIKSsbESt10_Select1stIS2_ESt4lessISsESaIS2_EE24_M_get_insert_unique_posERS1_
000000000009b940 W _ZNSt8_Rb_treeISsSt4pairIKSsbESt10_Select1stIS2_ESt4lessISsESaIS2_EE7_M_copyEPKSt13_Rb_tree_nodeIS2_EPSA_
000000000004fb10 W _ZNSt8_Rb_treeISsSt4pairIKSsbESt10_Select1stIS2_ESt4lessISsESaIS2_EE8_M_eraseEPSt13_Rb_tree_nodeIS2_E
00000000000b4c60 W _ZNSt8_Rb_treeISsSt4pairIKSslESt10_Select1stIS2_ESt4lessISsESaIS2_EE22_M_emplace_hint_uniqueIIRKSt21piecewise_construct_tSt5tupleIIRS1_EESD_IIEEEEESt17_Rb_tree_iteratorIS2_ESt23_Rb_tree_const_iteratorIS2_EDpOT_
00000000000b4c60 W _ZNSt8_Rb_treeISsSt4pairIKSslESt10_Select1stIS2_ESt4lessISsESaIS2_EE22_M_emplace_hint_uniqueIJRKSt21piecewise_construct_tSt5tupleIJRS1_EESD_IJEEEEESt17_Rb_tree_iteratorIS2_ESt23_Rb_tree_const_iteratorIS2_EDpOT_
00000000000b4b00 W _ZNSt8_Rb_treeISsSt4pairIKSslESt10_Select1stIS2_ESt4lessISsESaIS2_EE24_M_get_insert_unique_posERS1_
00000000000b4410 W _ZNSt8_Rb_treeISsSt4pairIKSslESt10_Select1stIS2_ESt4lessISsESaIS2_EE4findERS1_
00000000000b3760 W _ZNSt8_Rb_treeISsSt4pairIKSslESt10_Select1stIS2_ESt4lessISsESaIS2_EE8_M_eraseEPSt13_Rb_tree_nodeIS2_E
00000000000bda00 W _ZNSt8_Rb_treeISsSt4pairIKSsN15PromptEntryBase15GroupAttributesEESt10_Select1stIS4_ESt4lessISsESaIS4_EE22_M_emplace_hint_uniqueIIRKSt21piecewise_construct_tSt5tupleIIOSsEESF_IIEEEEESt17_Rb_tree_iteratorIS4_ESt23_Rb_tree_const_iteratorIS4_EDpOT_
000000000009caa0 W _ZNSt8_Rb_treeISsSt4pairIKSsN15PromptEntryBase15GroupAttributesEESt10_Select1stIS4_ESt4lessISsESaIS4_EE22_M_emplace_hint_uniqueIIRKSt21piecewise_construct_tSt5tupleIIRS1_EESF_IIEEEEESt17_Rb_tree_iteratorIS4_ESt23_Rb_tree_const_iteratorIS4_EDpOT_
00000000000bda00 W _ZNSt8_Rb_treeISsSt4pairIKSsN15PromptEntryBase15GroupAttributesEESt10_Select1stIS4_ESt4lessISsESaIS4_EE22_M_emplace_hint_uniqueIJRKSt21piecewise_construct_tSt5tupleIJOSsEESF_IJEEEEESt17_Rb_tree_iteratorIS4_ESt23_Rb_tree_const_iteratorIS4_EDpOT_
000000000009caa0 W _ZNSt8_Rb_treeISsSt4pairIKSsN15PromptEntryBase15GroupAttributesEESt10_Select1stIS4_ESt4lessISsESaIS4_EE22_M_emplace_hint_uniqueIJRKSt21piecewise_construct_tSt5tupleIJRS1_EESF_IJEEEEESt17_Rb_tree_iteratorIS4_ESt23_Rb_tree_const_iteratorIS4_EDpOT_
000000000009c940 W _ZNSt8_Rb_treeISsSt4pairIKSsN15PromptEntryBase15GroupAttributesEESt10_Select1stIS4_ESt4lessISsESaIS4_EE24_M_get_insert_unique_posERS1_
000000000009a940 W _ZNSt8_Rb_treeISsSt4pairIKSsN15PromptEntryBase15GroupAttributesEESt10_Select1stIS4_ESt4lessISsESaIS4_EE8_M_eraseEPSt13_Rb_tree_nodeIS4_E
00000000000b5da0 W _ZNSt8_Rb_treeISsSt4pairIKSsP11HostProfileESt10_Select1stIS4_ESt4lessISsESaIS4_EE22_M_emplace_hint_uniqueIIRKSt21piecewise_construct_tSt5tupleIIRS1_EESF_IIEEEEESt17_Rb_tree_iteratorIS4_ESt23_Rb_tree_const_iteratorIS4_EDpOT_
00000000000b5da0 W _ZNSt8_Rb_treeISsSt4pairIKSsP11HostProfileESt10_Select1stIS4_ESt4lessISsESaIS4_EE22_M_emplace_hint_uniqueIJRKSt21piecewise_construct_tSt5tupleIJRS1_EESF_IJEEEEESt17_Rb_tree_iteratorIS4_ESt23_Rb_tree_const_iteratorIS4_EDpOT_
00000000000b5c40 W _ZNSt8_Rb_treeISsSt4pairIKSsP11HostProfileESt10_Select1stIS4_ESt4lessISsESaIS4_EE24_M_get_insert_unique_posERS1_
00000000000e3ea0 W _ZNSt8_Rb_treeISsSt4pairIKSsP11HostProfileESt10_Select1stIS4_ESt4lessISsESaIS4_EE7_M_copyEPKSt13_Rb_tree_nodeIS4_EPSC_
00000000000b2d60 W _ZNSt8_Rb_treeISsSt4pairIKSsP11HostProfileESt10_Select1stIS4_ESt4lessISsESaIS4_EE8_M_eraseEPSt13_Rb_tree_nodeIS4_E
00000000000b5220 W _ZNSt8_Rb_treeISsSt4pairIKSsP16HostInitSettingsESt10_Select1stIS4_ESt4lessISsESaIS4_EE22_M_emplace_hint_uniqueIIRKSt21piecewise_construct_tSt5tupleIIRS1_EESF_IIEEEEESt17_Rb_tree_iteratorIS4_ESt23_Rb_tree_const_iteratorIS4_EDpOT_
00000000000b5220 W _ZNSt8_Rb_treeISsSt4pairIKSsP16HostInitSettingsESt10_Select1stIS4_ESt4lessISsESaIS4_EE22_M_emplace_hint_uniqueIJRKSt21piecewise_construct_tSt5tupleIJRS1_EESF_IJEEEEESt17_Rb_tree_iteratorIS4_ESt23_Rb_tree_const_iteratorIS4_EDpOT_
00000000000b50c0 W _ZNSt8_Rb_treeISsSt4pairIKSsP16HostInitSettingsESt10_Select1stIS4_ESt4lessISsESaIS4_EE24_M_get_insert_unique_posERS1_
00000000000b4510 W _ZNSt8_Rb_treeISsSt4pairIKSsP16HostInitSettingsESt10_Select1stIS4_ESt4lessISsESaIS4_EE4findERS1_
0000000000156f40 W _ZNSt8_Rb_treeISsSt4pairIKSsP16HostInitSettingsESt10_Select1stIS4_ESt4lessISsESaIS4_EE7_M_copyEPKSt13_Rb_tree_nodeIS4_EPSC_
00000000000b3260 W _ZNSt8_Rb_treeISsSt4pairIKSsP16HostInitSettingsESt10_Select1stIS4_ESt4lessISsESaIS4_EE8_M_eraseEPSt13_Rb_tree_nodeIS4_E
00000000000b57e0 W _ZNSt8_Rb_treeISsSt4pairIKSsPSt4listIP11HostProfileSaIS4_EEESt10_Select1stIS8_ESt4lessISsESaIS8_EE22_M_emplace_hint_uniqueIIRKSt21piecewise_construct_tSt5tupleIIRS1_EESJ_IIEEEEESt17_Rb_tree_iteratorIS8_ESt23_Rb_tree_const_iteratorIS8_EDpOT_
00000000000b57e0 W _ZNSt8_Rb_treeISsSt4pairIKSsPSt4listIP11HostProfileSaIS4_EEESt10_Select1stIS8_ESt4lessISsESaIS8_EE22_M_emplace_hint_uniqueIJRKSt21piecewise_construct_tSt5tupleIJRS1_EESJ_IJEEEEESt17_Rb_tree_iteratorIS8_ESt23_Rb_tree_const_iteratorIS8_EDpOT_
00000000000b5680 W _ZNSt8_Rb_treeISsSt4pairIKSsPSt4listIP11HostProfileSaIS4_EEESt10_Select1stIS8_ESt4lessISsESaIS8_EE24_M_get_insert_unique_posERS1_
00000000000b4610 W _ZNSt8_Rb_treeISsSt4pairIKSsPSt4listIP11HostProfileSaIS4_EEESt10_Select1stIS8_ESt4lessISsESaIS8_EE4findERS1_
00000000000b3c60 W _ZNSt8_Rb_treeISsSt4pairIKSsPSt4listIP11HostProfileSaIS4_EEESt10_Select1stIS8_ESt4lessISsESaIS8_EE8_M_eraseEPSt13_Rb_tree_nodeIS8_E
000000000009c070 W _ZNSt8_Rb_treeISsSt4pairIKSsSsESt10_Select1stIS2_ESt4lessISsESaIS2_EE10_M_insert_IS2_EESt17_Rb_tree_iteratorIS2_EPSt18_Rb_tree_node_baseSD_OT_
0000000000115a80 W _ZNSt8_Rb_treeISsSt4pairIKSsSsESt10_Select1stIS2_ESt4lessISsESaIS2_EE11equal_rangeERS1_
000000000009c1d0 W _ZNSt8_Rb_treeISsSt4pairIKSsSsESt10_Select1stIS2_ESt4lessISsESaIS2_EE15_M_insert_equalIS2_EESt17_Rb_tree_iteratorIS2_EOT_
000000000009c2a0 W _ZNSt8_Rb_treeISsSt4pairIKSsSsESt10_Select1stIS2_ESt4lessISsESaIS2_EE16_M_insert_uniqueIS2_EES0_ISt17_Rb_tree_iteratorIS2_EbEOT_
00000000000606e0 W _ZNSt8_Rb_treeISsSt4pairIKSsSsESt10_Select1stIS2_ESt4lessISsESaIS2_EE22_M_emplace_hint_uniqueIIRKSt21piecewise_construct_tSt5tupleIIOSsEESD_IIEEEEESt17_Rb_tree_iteratorIS2_ESt23_Rb_tree_const_iteratorIS2_EDpOT_
00000000000aa490 W _ZNSt8_Rb_treeISsSt4pairIKSsSsESt10_Select1stIS2_ESt4lessISsESaIS2_EE22_M_emplace_hint_uniqueIIRKSt21piecewise_construct_tSt5tupleIIRS1_EESD_IIEEEEESt17_Rb_tree_iteratorIS2_ESt23_Rb_tree_const_iteratorIS2_EDpOT_
00000000000606e0 W _ZNSt8_Rb_treeISsSt4pairIKSsSsESt10_Select1stIS2_ESt4lessISsESaIS2_EE22_M_emplace_hint_uniqueIJRKSt21piecewise_construct_tSt5tupleIJOSsEESD_IJEEEEESt17_Rb_tree_iteratorIS2_ESt23_Rb_tree_const_iteratorIS2_EDpOT_
00000000000aa490 W _ZNSt8_Rb_treeISsSt4pairIKSsSsESt10_Select1stIS2_ESt4lessISsESaIS2_EE22_M_emplace_hint_uniqueIJRKSt21piecewise_construct_tSt5tupleIJRS1_EESD_IJEEEEESt17_Rb_tree_iteratorIS2_ESt23_Rb_tree_const_iteratorIS2_EDpOT_
0000000000060580 W _ZNSt8_Rb_treeISsSt4pairIKSsSsESt10_Select1stIS2_ESt4lessISsESaIS2_EE24_M_get_insert_unique_posERS1_
000000000009b050 W _ZNSt8_Rb_treeISsSt4pairIKSsSsESt10_Select1stIS2_ESt4lessISsESaIS2_EE4findERS1_
000000000009c410 W _ZNSt8_Rb_treeISsSt4pairIKSsSsESt10_Select1stIS2_ESt4lessISsESaIS2_EE7_M_copyEPKSt13_Rb_tree_nodeIS2_EPSA_
000000000005fd50 W _ZNSt8_Rb_treeISsSt4pairIKSsSsESt10_Select1stIS2_ESt4lessISsESaIS2_EE8_M_eraseEPSt13_Rb_tree_nodeIS2_E
000000000012af90 W _ZNSt8_Rb_treeISsSt4pairIKSsSt4listISsSaISsEEESt10_Select1stIS5_ESt4lessISsESaIS5_EE22_M_emplace_hint_uniqueIIRKSt21piecewise_construct_tSt5tupleIIRS1_EESG_IIEEEEESt17_Rb_tree_iteratorIS5_ESt23_Rb_tree_const_iteratorIS5_EDpOT_
000000000012af90 W _ZNSt8_Rb_treeISsSt4pairIKSsSt4listISsSaISsEEESt10_Select1stIS5_ESt4lessISsESaIS5_EE22_M_emplace_hint_uniqueIJRKSt21piecewise_construct_tSt5tupleIJRS1_EESG_IJEEEEESt17_Rb_tree_iteratorIS5_ESt23_Rb_tree_const_iteratorIS5_EDpOT_
000000000012ae30 W _ZNSt8_Rb_treeISsSt4pairIKSsSt4listISsSaISsEEESt10_Select1stIS5_ESt4lessISsESaIS5_EE24_M_get_insert_unique_posERS1_
000000000012aa20 W _ZNSt8_Rb_treeISsSt4pairIKSsSt4listISsSaISsEEESt10_Select1stIS5_ESt4lessISsESaIS5_EE8_M_eraseEPSt13_Rb_tree_nodeIS5_E
                 U _ZNSt9basic_iosIcSt11char_traitsIcEE4initEPSt15basic_streambufIcS1_E@GLIBCXX_3.4
                 U _ZNSt9basic_iosIcSt11char_traitsIcEE5clearESt12_Ios_Iostate@GLIBCXX_3.4
                 U _ZNSt9basic_iosIcSt11char_traitsIcEE5imbueERKSt6locale@GLIBCXX_3.4
                 U _ZNSt9exceptionD2Ev@GLIBCXX_3.4
                 U _Znwm@GLIBCXX_3.4
000000000015edf0 W _ZSt13__adjust_heapIN9__gnu_cxx17__normal_iteratorIPSsSt6vectorISsSaISsEEEElSsEvT_T0_S8_T1_
000000000015ec60 W _ZSt16__insertion_sortIN9__gnu_cxx17__normal_iteratorIPSsSt6vectorISsSaISsEEEEEvT_S7_
000000000015f200 W _ZSt16__introsort_loopIN9__gnu_cxx17__normal_iteratorIPSsSt6vectorISsSaISsEEEElEvT_S7_T0_
                 U _ZSt16__ostream_insertIcSt11char_traitsIcEERSt13basic_ostreamIT_T0_ES6_PKS3_l@GLIBCXX_3.4.9
                 U _ZSt16__throw_bad_castv@GLIBCXX_3.4
                 U _ZSt17__throw_bad_allocv@GLIBCXX_3.4
                 U _ZSt18_Rb_tree_decrementPSt18_Rb_tree_node_base@GLIBCXX_3.4
                 U _ZSt18_Rb_tree_incrementPKSt18_Rb_tree_node_base@GLIBCXX_3.4
                 U _ZSt18_Rb_tree_incrementPSt18_Rb_tree_node_base@GLIBCXX_3.4
                 U _ZSt18uncaught_exceptionv@GLIBCXX_3.4
                 U _ZSt19__throw_logic_errorPKc@GLIBCXX_3.4
                 U _ZSt20__throw_length_errorPKc@GLIBCXX_3.4
                 U _ZSt20__throw_out_of_rangePKc@GLIBCXX_3.4
                 U _ZSt20__throw_system_errori@GLIBCXX_3.4.11
000000000015eb20 W _ZSt25__unguarded_linear_insertIN9__gnu_cxx17__normal_iteratorIPSsSt6vectorISsSaISsEEEEEvT_
                 U _ZSt28_Rb_tree_rebalance_for_erasePSt18_Rb_tree_node_baseRS_@GLIBCXX_3.4
                 U _ZSt29_Rb_tree_insert_and_rebalancebPSt18_Rb_tree_node_baseS0_RS_@GLIBCXX_3.4
0000000000155fd0 W _ZSt6__findIN9__gnu_cxx17__normal_iteratorIPSsSt6vectorISsSaISsEEEESsET_S7_S7_RKT0_St26random_access_iterator_tag
000000000015db60 W _ZSt6uniqueIN9__gnu_cxx17__normal_iteratorIPSsSt6vectorISsSaISsEEEEET_S7_S7_
                 U _ZSt7getlineIcSt11char_traitsIcESaIcEERSt13basic_istreamIT_T0_ES7_RSbIS4_S5_T1_E@GLIBCXX_3.4
                 U _ZSt7getlineIcSt11char_traitsIcESaIcEERSt13basic_istreamIT_T0_ES7_RSbIS4_S5_T1_ES4_@GLIBCXX_3.4
000000000015f0a0 W _ZSt9make_heapIN9__gnu_cxx17__normal_iteratorIPSsSt6vectorISsSaISsEEEEEvT_S7_
                 U _ZSt9terminatev@GLIBCXX_3.4
00000000000994f0 W _ZSteqIcEN9__gnu_cxx11__enable_ifIXsrSt9__is_charIT_E7__valueEbE6__typeERKSbIS3_St11char_traitsIS3_ESaIS3_EESC_
                 U _ZStlsISt11char_traitsIcEERSt13basic_ostreamIcT_ES5_PKc@GLIBCXX_3.4
0000000000099b00 W _ZStplIcSt11char_traitsIcESaIcEESbIT_T0_T1_EPKS3_RKS6_
0000000000099bb0 W _ZStplIcSt11char_traitsIcESaIcEESbIT_T0_T1_ERKS6_OS6_
0000000000099a80 W _ZStplIcSt11char_traitsIcESaIcEESbIT_T0_T1_ERKS6_PKS3_
0000000000160580 T _ZThn112_N14CPublicProxies30GetDnsServersForNameResolutionER11CIPAddrList
00000000003b4340 V _ZTI10ConnectIfc
00000000003b3cc0 V _ZTI10Preference
00000000003b3b00 V _ZTI10ProfileMgr
00000000003b4600 V _ZTI11HostProfile
00000000003b3bd0 V _ZTI11PromptEntry
                 U _ZTI12CVCSaxWriter
00000000003b47e0 V _ZTI12VPNStatsBase
00000000003b4060 V _ZTI13ClientIfcBase
00000000003b31a0 V _ZTI13XmlAggAuthMgr
00000000003b4820 V _ZTI14ConnectIfcData
00000000003b4ee0 V _ZTI14CPublicProxies
00000000003b3c80 V _ZTI14PreferenceBase
00000000003b2650 V _ZTI14PreferenceInfo
00000000003b4c20 V _ZTI15CommandLineArgs
00000000003b3c40 V _ZTI15PromptEntryBase
00000000003b4860 V _ZTI15UserPreferences
00000000003b4260 V _ZTI16HostInitSettings
00000000003b4ba0 V _ZTI16XmlAggAuthWriter
00000000003b3b80 V _ZTI17ConnectPromptInfo
00000000003b4c30 V _ZTI18GuiCommandLineArgs
00000000003b3d00 V _ZTI18PreferenceInfoBase
                 U _ZTI18XmlHierarchicalMgr
00000000003b4110 V _ZTI19IPreferenceUpdateCB
                 U _ZTI20CPublicProxiesCommon
00000000003b3bc0 V _ZTI21ConnectPromptInfoBase
00000000003b4b60 V _ZTI7AggAuth
00000000003b3b40 V _ZTI7CertObj
                 U _ZTI7CIPCTLV
                 U _ZTI7CThread
00000000003b48c0 V _ZTI8ProxyIfc
00000000003b4790 V _ZTI8VPNStats
00000000003b3d60 V _ZTI9ClientIfc
00000000003b45f0 V _ZTI9IHostData
00000000003b49f0 V _ZTI9XmlIfcMgr
00000000003b30d0 V _ZTIN5boost16exception_detail10clone_baseE
00000000003b30e0 V _ZTIN5boost3any11placeholderE
00000000003b30c0 V _ZTIN5boost9exceptionE
                 U _ZTIPKc@CXXABI_1.3
00000000003b33b0 V _ZTISs
00000000003b3020 V _ZTISt10_List_baseISt4pairISsSsESaIS1_EE
00000000003b23c0 V _ZTISt11_Mutex_baseILN9__gnu_cxx12_Lock_policyE2EE
                 U _ZTISt12bad_weak_ptr@GLIBCXX_3.4.15
                 U _ZTISt13runtime_error@GLIBCXX_3.4
00000000003b24b0 V _ZTISt16_Sp_counted_baseILN9__gnu_cxx12_Lock_policyE2EE
00000000003b3e30 V _ZTISt19_Sp_make_shared_tag
00000000003b3d40 V _ZTISt22condition_variable_any
00000000003b3e60 V _ZTISt23_Sp_counted_ptr_inplaceI14PreferenceInfoSaIS0_ELN9__gnu_cxx12_Lock_policyE2EE
00000000003b3040 V _ZTISt4listISt4pairISsSsESaIS1_EE
000000000017aa57 V _ZTS10ConnectIfc
0000000000174871 V _ZTS10Preference
000000000017341d V _ZTS10ProfileMgr
000000000017bf10 V _ZTS11HostProfile
00000000001738f8 V _ZTS11PromptEntry
000000000017c8c5 V _ZTS12VPNStatsBase
00000000001764d0 V _ZTS13ClientIfcBase
0000000000172330 V _ZTS13XmlAggAuthMgr
000000000017cea0 V _ZTS14ConnectIfcData
00000000001805a0 V _ZTS14CPublicProxies
0000000000174860 V _ZTS14PreferenceBase
000000000016a720 V _ZTS14PreferenceInfo
000000000017f470 V _ZTS15CommandLineArgs
0000000000173980 V _ZTS15PromptEntryBase
000000000017d470 V _ZTS15UserPreferences
0000000000178ed0 V _ZTS16HostInitSettings
000000000017f270 V _ZTS16XmlAggAuthWriter
0000000000173820 V _ZTS17ConnectPromptInfo
000000000017f490 V _ZTS18GuiCommandLineArgs
0000000000174bf0 V _ZTS18PreferenceInfoBase
00000000001788c0 V _ZTS19IPreferenceUpdateCB
00000000001738e0 V _ZTS21ConnectPromptInfoBase
000000000017f16d V _ZTS7AggAuth
0000000000173812 V _ZTS7CertObj
000000000017da16 V _ZTS8ProxyIfc
000000000017bf1e V _ZTS8VPNStats
00000000001761ab V _ZTS9ClientIfc
000000000017bf05 V _ZTS9IHostData
000000000017eb58 V _ZTS9XmlIfcMgr
0000000000172180 V _ZTSN5boost16exception_detail10clone_baseE
00000000001721b0 V _ZTSN5boost3any11placeholderE
0000000000172150 V _ZTSN5boost9exceptionE
000000000017247a V _ZTSSs
0000000000172080 V _ZTSSt10_List_baseISt4pairISsSsESaIS1_EE
000000000016a4a0 V _ZTSSt11_Mutex_baseILN9__gnu_cxx12_Lock_policyE2EE
000000000016a580 V _ZTSSt16_Sp_counted_baseILN9__gnu_cxx12_Lock_policyE2EE
0000000000176260 V _ZTSSt19_Sp_make_shared_tag
0000000000176190 V _ZTSSt22condition_variable_any
00000000001762e0 V _ZTSSt23_Sp_counted_ptr_inplaceI14PreferenceInfoSaIS0_ELN9__gnu_cxx12_Lock_policyE2EE
00000000001720b0 V _ZTSSt4listISt4pairISsSsESaIS1_EE
                 U _ZTTSt14basic_ifstreamIcSt11char_traitsIcEE@GLIBCXX_3.4
                 U _ZTTSt14basic_ofstreamIcSt11char_traitsIcEE@GLIBCXX_3.4
                 U _ZTTSt18basic_stringstreamIcSt11char_traitsIcESaIcEE@GLIBCXX_3.4
                 U _ZTTSt19basic_ostringstreamIcSt11char_traitsIcESaIcEE@GLIBCXX_3.4
00000000003b4360 V _ZTV10ConnectIfc
00000000003b3ce0 V _ZTV10Preference
00000000003b3b20 V _ZTV10ProfileMgr
                 U _ZTV11CProcessApi
00000000003b46e0 V _ZTV11HostProfile
00000000003b3c00 V _ZTV11PromptEntry
00000000003b4800 V _ZTV12VPNStatsBase
00000000003b4080 V _ZTV13ClientIfcBase
00000000003b3600 V _ZTV13XmlAggAuthMgr
00000000003b4840 V _ZTV14ConnectIfcData
00000000003b4f00 V _ZTV14CPublicProxies
00000000003b3ca0 V _ZTV14PreferenceBase
00000000003b2da0 V _ZTV14PreferenceInfo
00000000003b4c60 V _ZTV15CommandLineArgs
00000000003b3c60 V _ZTV15PromptEntryBase
00000000003b48a0 V _ZTV15UserPreferences
00000000003b42a0 V _ZTV16HostInitSettings
00000000003b4bc0 V _ZTV16XmlAggAuthWriter
00000000003b3ba0 V _ZTV17ConnectPromptInfo
00000000003b4c80 V _ZTV18GuiCommandLineArgs
00000000003b3d20 V _ZTV18PreferenceInfoBase
00000000003b4180 V _ZTV19IPreferenceUpdateCB
00000000003b3c20 V _ZTV21ConnectPromptInfoBase
00000000003b4b80 V _ZTV7AggAuth
00000000003b3b60 V _ZTV7CertObj
00000000003b48e0 V _ZTV8ProxyIfc
00000000003b47c0 V _ZTV8VPNStats
00000000003b3f40 V _ZTV9ClientIfc
00000000003b4620 V _ZTV9IHostData
00000000003b4a60 V _ZTV9XmlIfcMgr
                 U _ZTVN10__cxxabiv117__class_type_infoE@CXXABI_1.3
                 U _ZTVN10__cxxabiv120__si_class_type_infoE@CXXABI_1.3
                 U _ZTVN10__cxxabiv121__vmi_class_type_infoE@CXXABI_1.3
00000000003b3420 V _ZTVN5boost16exception_detail10clone_baseE
00000000003b3460 V _ZTVN5boost3any11placeholderE
00000000003b3400 V _ZTVN5boost9exceptionE
                 U _ZTVSt12bad_weak_ptr@GLIBCXX_3.4.15
                 U _ZTVSt13basic_filebufIcSt11char_traitsIcEE@GLIBCXX_3.4
                 U _ZTVSt13runtime_error@GLIBCXX_3.4
                 U _ZTVSt14basic_ifstreamIcSt11char_traitsIcEE@GLIBCXX_3.4
                 U _ZTVSt14basic_ofstreamIcSt11char_traitsIcEE@GLIBCXX_3.4
                 U _ZTVSt15basic_streambufIcSt11char_traitsIcEE@GLIBCXX_3.4
                 U _ZTVSt15basic_stringbufIcSt11char_traitsIcESaIcEE@GLIBCXX_3.4
00000000003b26a0 V _ZTVSt16_Sp_counted_baseILN9__gnu_cxx12_Lock_policyE2EE
                 U _ZTVSt18basic_stringstreamIcSt11char_traitsIcESaIcEE@GLIBCXX_3.4
                 U _ZTVSt19basic_ostringstreamIcSt11char_traitsIcESaIcEE@GLIBCXX_3.4
00000000003b4020 V _ZTVSt23_Sp_counted_ptr_inplaceI14PreferenceInfoSaIS0_ELN9__gnu_cxx12_Lock_policyE2EE
                 U _ZTVSt9basic_iosIcSt11char_traitsIcEE@GLIBCXX_3.4
